/lib64/ld-linux-x86-64.so.2
H )@HI
1i`c
PVVF
=	0K
|ghs
=f/h|
_ITM_deregisterTMCloneTable
__gmon_start__
_ITM_registerTMCloneTable
_ZNK9__gnu_cxx13new_allocatorINSt7__cxx1112basic_stringIcSt11char_traitsIcESaIcEEEE11_M_max_sizeEv
_ZNSt12_Vector_baseINSt7__cxx1112basic_stringIcSt11char_traitsIcESaIcEEESaIS5_EED2Ev
_ZN9__gnu_cxx13new_allocatorINSt7__cxx1112basic_stringIcSt11char_traitsIcESaIcEEEEC2Ev
_ZN9__gnu_cxx13new_allocatorINSt7__cxx1112basic_stringIcSt11char_traitsIcESaIcEEEED1Ev
_ZSt10_ConstructINSt7__cxx1112basic_stringIcSt11char_traitsIcESaIcEEEJRKS5_EEvPT_DpOT0_
_ZnwmPv
_ZN9__gnu_cxx13new_allocatorINSt7__cxx1112basic_stringIcSt11char_traitsIcESaIcEEEEC2ERKS7_
_ZNSt6vectorINSt7__cxx1112basic_stringIcSt11char_traitsIcESaIcEEESaIS5_EED1Ev
_ZNSaINSt7__cxx1112basic_stringIcSt11char_traitsIcESaIcEEEEC1Ev
_ZNKSt16initializer_listINSt7__cxx1112basic_stringIcSt11char_traitsIcESaIcEEEE3endEv
_ZNSt12_Vector_baseINSt7__cxx1112basic_stringIcSt11char_traitsIcESaIcEEESaIS5_EE12_Vector_implD1Ev
_ZSt22__uninitialized_copy_aIPKNSt7__cxx1112basic_stringIcSt11char_traitsIcESaIcEEEPS5_S5_ET0_T_SA_S9_RSaIT1_E
_ZNKSt16initializer_listINSt7__cxx1112basic_stringIcSt11char_traitsIcESaIcEEEE4sizeEv
_ZN9__gnu_cxx13new_allocatorINSt7__cxx1112basic_stringIcSt11char_traitsIcESaIcEEEE10deallocateEPS6_m
_ZSt8distanceIPKNSt7__cxx1112basic_stringIcSt11char_traitsIcESaIcEEEENSt15iterator_traitsIT_E15difference_typeES9_S9_
_ZNSt16allocator_traitsISaINSt7__cxx1112basic_stringIcSt11char_traitsIcESaIcEEEEE8max_sizeERKS6_
_ZSt10__distanceIPKcENSt15iterator_traitsIT_E15difference_typeES3_S3_St26random_access_iterator_tag
_ZNSt12_Destroy_auxILb0EE9__destroyIPNSt7__cxx1112basic_stringIcSt11char_traitsIcESaIcEEEEEvT_S9_
_ZSt11__addressofINSt7__cxx1112basic_stringIcSt11char_traitsIcESaIcEEEEPT_RS6_
_ZNSt20__uninitialized_copyILb0EE13__uninit_copyIPKNSt7__cxx1112basic_stringIcSt11char_traitsIcESaIcEEEPS7_EET0_T_SC_SB_
_ZNSt7__cxx1112basic_stringIcSt11char_traitsIcESaIcEE12_Alloc_hiderD2Ev
_ZNSt12_Vector_baseINSt7__cxx1112basic_stringIcSt11char_traitsIcESaIcEEESaIS5_EEC1ERKS6_
_ZSt17__size_to_integerm
_ZNSt16allocator_traitsISaINSt7__cxx1112basic_stringIcSt11char_traitsIcESaIcEEEEE8allocateERS6_m
_ZNSt16allocator_traitsISaINSt7__cxx1112basic_stringIcSt11char_traitsIcESaIcEEEEE10deallocateERS6_PS5_m
_ZN9__gnu_cxx13new_allocatorINSt7__cxx1112basic_stringIcSt11char_traitsIcESaIcEEEED2Ev
_ZNSt12_Vector_baseINSt7__cxx1112basic_stringIcSt11char_traitsIcESaIcEEESaIS5_EEC2ERKS6_
_ZNSt6vectorINSt7__cxx1112basic_stringIcSt11char_traitsIcESaIcEEESaIS5_EEixEm
_ZNSt6vectorINSt7__cxx1112basic_stringIcSt11char_traitsIcESaIcEEESaIS5_EED2Ev
_ZNSaINSt7__cxx1112basic_stringIcSt11char_traitsIcESaIcEEEEC2Ev
_ZNSt12_Vector_baseINSt7__cxx1112basic_stringIcSt11char_traitsIcESaIcEEESaIS5_EE12_Vector_implD2Ev
_ZNSt11char_traitsIcE6lengthEPKc
_ZNSaINSt7__cxx1112basic_stringIcSt11char_traitsIcESaIcEEEED1Ev
_ZNSt12_Vector_baseINSt7__cxx1112basic_stringIcSt11char_traitsIcESaIcEEESaIS5_EE12_Vector_implC1ERKS6_
_ZN9__gnu_cxx11char_traitsIcE6lengthEPKc
_ZN9__gnu_cxx11char_traitsIcE2eqERKcS3_
_ZNSaINSt7__cxx1112basic_stringIcSt11char_traitsIcESaIcEEEEC1ERKS5_
_ZNSt12_Vector_baseINSt7__cxx1112basic_stringIcSt11char_traitsIcESaIcEEESaIS5_EE13_M_deallocateEPS5_m
_ZdlPvS_
_ZN9__gnu_cxx13new_allocatorINSt7__cxx1112basic_stringIcSt11char_traitsIcESaIcEEEE8allocateEmPKv
_ZN9__gnu_cxx17__is_null_pointerIKcEEbPT_
_ZNSt6vectorINSt7__cxx1112basic_stringIcSt11char_traitsIcESaIcEEESaIS5_EE19_M_range_initializeIPKS5_EEvT_SB_St20forward_iterator_tag
_ZNSt12_Vector_baseINSt7__cxx1112basic_stringIcSt11char_traitsIcESaIcEEESaIS5_EE17_Vector_impl_dataC1Ev
_ZSt8_DestroyINSt7__cxx1112basic_stringIcSt11char_traitsIcESaIcEEEEvPT_
_ZNSt12_Vector_baseINSt7__cxx1112basic_stringIcSt11char_traitsIcESaIcEEESaIS5_EE12_Vector_implC2ERKS6_
_ZNSaINSt7__cxx1112basic_stringIcSt11char_traitsIcESaIcEEEEC2ERKS5_
_ZSt8distanceIPKcENSt15iterator_traitsIT_E15difference_typeES3_S3_
_ZNSt6vectorINSt7__cxx1112basic_stringIcSt11char_traitsIcESaIcEEESaIS5_EE17_S_check_init_lenEmRKS6_
_ZSt18uninitialized_copyIPKNSt7__cxx1112basic_stringIcSt11char_traitsIcESaIcEEEPS5_ET0_T_SA_S9_
_ZNSt12_Vector_baseINSt7__cxx1112basic_stringIcSt11char_traitsIcESaIcEEESaIS5_EED1Ev
_ZN9__gnu_cxx13new_allocatorINSt7__cxx1112basic_stringIcSt11char_traitsIcESaIcEEEEC1Ev
_ZNSt7__cxx1112basic_stringIcSt11char_traitsIcESaIcEEC1IS3_EEPKcRKS3_
_ZSt8_DestroyIPNSt7__cxx1112basic_stringIcSt11char_traitsIcESaIcEEEEvT_S7_
_ZNSaINSt7__cxx1112basic_stringIcSt11char_traitsIcESaIcEEEED2Ev
_ZNKSt16initializer_listINSt7__cxx1112basic_stringIcSt11char_traitsIcESaIcEEEE5beginEv
_ZSt3minImERKT_S2_S2_
_ZNSt12_Vector_baseINSt7__cxx1112basic_stringIcSt11char_traitsIcESaIcEEESaIS5_EE11_M_allocateEm
_ZSt8_DestroyIPNSt7__cxx1112basic_stringIcSt11char_traitsIcESaIcEEES5_EvT_S7_RSaIT0_E
_ZNSt7__cxx1112basic_stringIcSt11char_traitsIcESaIcEE12_M_constructIPKcEEvT_S8_St20forward_iterator_tag
_ZSt19__iterator_categoryIPKcENSt15iterator_traitsIT_E17iterator_categoryERKS3_
_ZSt10__distanceIPKNSt7__cxx1112basic_stringIcSt11char_traitsIcESaIcEEEENSt15iterator_traitsIT_E15difference_typeES9_S9_St26random_access_iterator_tag
_Z11asio_nsensev
_ZNSt6vectorINSt7__cxx1112basic_stringIcSt11char_traitsIcESaIcEEESaIS5_EEC2ESt16initializer_listIS5_ERKS6_
_ZNSt12_Vector_baseINSt7__cxx1112basic_stringIcSt11char_traitsIcESaIcEEESaIS5_EE17_Vector_impl_dataC2Ev
_ZSt7forwardIRKNSt7__cxx1112basic_stringIcSt11char_traitsIcESaIcEEEEOT_RNSt16remove_referenceIS8_E4typeE
_ZNSt12_Vector_baseINSt7__cxx1112basic_stringIcSt11char_traitsIcESaIcEEESaIS5_EE19_M_get_Tp_allocatorEv
_ZNSt7__cxx1112basic_stringIcSt11char_traitsIcESaIcEE12_Alloc_hiderD1Ev
_ZSt19__iterator_categoryIPKNSt7__cxx1112basic_stringIcSt11char_traitsIcESaIcEEEENSt15iterator_traitsIT_E17iterator_categoryERKS9_
_ZNSt6vectorINSt7__cxx1112basic_stringIcSt11char_traitsIcESaIcEEESaIS5_EE11_S_max_sizeERKS6_
_ZNSt7__cxx1112basic_stringIcSt11char_traitsIcESaIcEEC2IS3_EEPKcRKS3_
_ZN9__gnu_cxx13new_allocatorINSt7__cxx1112basic_stringIcSt11char_traitsIcESaIcEEEEC1ERKS7_
_ZNK9__gnu_cxx13new_allocatorINSt7__cxx1112basic_stringIcSt11char_traitsIcESaIcEEEE8max_sizeEv
_ZNSt6vectorINSt7__cxx1112basic_stringIcSt11char_traitsIcESaIcEEESaIS5_EEC1ESt16initializer_listIS5_ERKS6_
_ZTVN10__cxxabiv121__vmi_class_type_infoE
__cxa_init_primary_exception
_ZNSt7__cxx1112basic_stringIcSt11char_traitsIcESaIcEE13_S_copy_charsEPcPKcS7_
_ZNSt11logic_errorC2EPKc
_ZSt20__throw_length_errorPKc
_ZTVSt9exception
_ZNSaIcEC1ERKS_
_ZTVNSt6thread6_StateE
_ZNSt7__cxx1112basic_stringIcSt11char_traitsIcESaIcEE7_M_dataEPc
_ZNSt6thread15_M_start_threadESt10unique_ptrINS_6_StateESt14default_deleteIS1_EEPFvvE
_ZSt9terminatev
_ZNSt7__cxx1112basic_stringIcSt11char_traitsIcESaIcEE11_M_capacityEm
_ZNKSt3_V214error_category10_M_messageB5cxx11Ei
_ZNSt11logic_errorD2Ev
_ZTISt9exception
_ZTISt8bad_cast
_ZTIv
_ZStlsIcSt11char_traitsIcESaIcEERSt13basic_ostreamIT_T0_ES7_RKNSt7__cxx1112basic_stringIS4_S5_T1_EE
_ZdlPvm
_ZNSt13runtime_errorC2ERKNSt7__cxx1112basic_stringIcSt11char_traitsIcESaIcEEE
_ZNSt3_V214error_categoryD2Ev
_ZNSaIcED1Ev
_ZNSt3_V215system_categoryEv
_ZNSt7__cxx1112basic_stringIcSt11char_traitsIcESaIcEEC1Ev
_ZSt17current_exceptionv
_ZSt4endlIcSt11char_traitsIcEERSt13basic_ostreamIT_T0_ES6_
__cxa_guard_acquire
_ZNSt7__cxx1112basic_stringIcSt11char_traitsIcESaIcEEC1EOS4_
_ZNSt15__exception_ptr13exception_ptrC2ERKS0_
_ZSt24__throw_invalid_argumentPKc
_ZNSt8ios_base4InitD1Ev
_ZNSt15__exception_ptr13exception_ptrC2Ev
_ZNSolsEPFRSoS_E
_ZTVSt12system_error
__cxa_throw
_ZNSt15__exception_ptr13exception_ptrD1Ev
_ZTVN10__cxxabiv117__class_type_infoE
_ZSt17__throw_bad_allocv
_ZTVN10__cxxabiv120__si_class_type_infoE
_ZNSt9exceptionD2Ev
_ZTISt12system_error
__cxa_begin_catch
_ZdlPv
_ZNSaIcEC2ERKS_
__cxa_pure_virtual
_ZTVSt8bad_cast
_ZNSt13runtime_errorC2ERKS_
__cxa_guard_release
_ZNSt6thread6_StateD2Ev
__cxa_allocate_exception
__gxx_personality_v0
_ZTINSt6thread6_StateE
_ZNKSt3_V214error_category10equivalentERKSt10error_codei
_ZNSt7__cxx1112basic_stringIcSt11char_traitsIcESaIcEE4dataEv
_ZNSt6thread4joinEv
_ZNSaIcEC1Ev
_ZNKSt7__cxx1112basic_stringIcSt11char_traitsIcESaIcEE4dataEv
_ZTINSt3_V214error_categoryE
_ZNSt11logic_errorC2ERKS_
_ZNKSt7__cxx1112basic_stringIcSt11char_traitsIcESaIcEE5c_strEv
_ZNSt15__exception_ptr13exception_ptrC1ERKS0_
_ZNKSt3_V214error_category23default_error_conditionEi
_ZSt28__throw_bad_array_new_lengthv
_ZNSt7__cxx1112basic_stringIcSt11char_traitsIcESaIcEE6insertEmPKc
_ZNKSt7__cxx1112basic_stringIcSt11char_traitsIcESaIcEE4findERKS4_m
_ZTISt11logic_error
_ZNKSt11logic_error4whatEv
_ZNSt8bad_castD2Ev
_ZNKSt7__cxx1112basic_stringIcSt11char_traitsIcESaIcEE7_M_dataEv
_ZNSaIcED2Ev
_ZNSt7__cxx1112basic_stringIcSt11char_traitsIcESaIcEEC1ERKS4_
_ZStlsISt11char_traitsIcEERSt13basic_ostreamIcT_ES5_PKc
_Znwm
_ZNSt15__exception_ptr13exception_ptr4swapERS0_
_ZNSt15__exception_ptr13exception_ptrC1EPv
_ZNSt7__cxx1112basic_stringIcSt11char_traitsIcESaIcEEpLEc
_ZNSt8ios_base4InitC1Ev
_ZNSt7__cxx1112basic_stringIcSt11char_traitsIcESaIcEE9_M_createERmm
_ZNSt12system_errorD1Ev
_ZSt17rethrow_exceptionNSt15__exception_ptr13exception_ptrE
__cxa_rethrow
_ZNSt7__cxx1112basic_stringIcSt11char_traitsIcESaIcEED1Ev
_ZNSt7__cxx1112basic_stringIcSt11char_traitsIcESaIcEE13_M_set_lengthEm
_ZNSt15__exception_ptr13exception_ptr10_M_releaseEv
_ZNSt15__exception_ptr13exception_ptrC1Ev
_ZNSt7__cxx1112basic_stringIcSt11char_traitsIcESaIcEE10_M_disposeEv
_ZSt4cout
_ZSt20__throw_out_of_rangePKc
_ZNKSt7__cxx1112basic_stringIcSt11char_traitsIcESaIcEE4sizeEv
_ZNKSt3_V214error_category10equivalentEiRKSt15error_condition
__cxa_end_catch
_ZNSt7__cxx1112basic_stringIcSt11char_traitsIcESaIcEE13_M_local_dataEv
_ZSt19__throw_logic_errorPKc
_ZNSt15__exception_ptr13exception_ptrD2Ev
_ZNSt7__cxx1112basic_stringIcSt11char_traitsIcESaIcEE12_Alloc_hiderC1EPcRKS3_
_ZNSt15__exception_ptr13exception_ptr9_M_addrefEv
_Unwind_Resume
pthread_cond_destroy
timerfd_settime
__cxa_finalize
ntohl
pthread_mutex_lock
strchr
pthread_detach
pthread_mutex_unlock
epoll_create
write
fcntl
pthread_join
connect
pthread_mutex_destroy
recv
__assert_fail
__libc_start_main
timerfd_create
strcmp
nanosleep
pthread_cond_signal
if_nametoindex
socket
inet_pton
atoi
epoll_ctl
__cxa_atexit
pthread_sigmask
strtol
memset
pthread_cond_broadcast
close
pthread_create
eventfd
pipe
strlen
getenv
send
memcmp
htonl
htons
pthread_condattr_init
epoll_wait
ioctl
memcpy
strerror_r
poll
pthread_mutex_init
pause
pthread_condattr_setclock
__errno_location
pthread_cond_wait
sigfillset
getsockopt
pthread_cond_init
epoll_create1
__stack_chk_fail
setsockopt
libl98745.so
libstdc++.so.6
libgcc_s.so.1
libc.so.6
GCC_3.0
CXXABI_1.3.3
CXXABI_1.3.9
CXXABI_1.3.11
GLIBCXX_3.4.29
GLIBCXX_3.4.26
CXXABI_1.3
GLIBCXX_3.4.11
GLIBCXX_3.4.21
GLIBCXX_3.4
GLIBCXX_3.4.22
CXXABI_1.3.13
GLIBC_2.9
GLIBC_2.7
GLIBC_2.4
GLIBC_2.14
GLIBC_2.8
GLIBC_2.34
GLIBC_2.32
GLIBC_2.2.5
GLIBC_2.3.2
PTE1
u+UH
AWAVAUATSH
[A\A]A^A_]
AUATSH
8[A\A]]
AUATSH
[A\A]]
ATSH
p[A\]
<*t&H
ATSH
 [A\]
}uCH
ATSH
[A\]
ATSH
[A\]
ATSH
[A\]
AUATSH
h[A\A]]
ATSH
[A\]
ATSH
[A\]
AUATSH
H[A\A]]
ATSH
[A\]
ATSH
[A\]
AUATSH
[A\A]]
ATSH
[A\]
AWAVAUATSH
[A\A]A^A_]
ATSH
 [A\]
ATSH
 [A\]
ATSH
 [A\]
ATSH
 [A\]
ATSH
 [A\]
ATSH
 [A\]
stoi
multiple exceptions
bad executor
asio.system
Operation aborted.
asio.netdb
Host not found (authoritative)
Host not found (non-authoritative), try again later
The query is valid, but it does not have associated data
A non-recoverable error occurred during database lookup
asio.netdb error
asio.addrinfo
Service not found
Socket type not supported
asio.addrinfo error
asio.misc
Already open
End of file
Element not found
The descriptor does not fit into the select call's fd_set
asio.misc error
event
mutex
Service already exists.
Invalid service owner.
thread
eventfd_select_interrupter
epoll re-registration
epoll
bad address cast
404 - Page Not Found
Your close but something is not found ;)
xhere_is_z_flag
could_u_give_it
give_my_z_key
do_the_magik_plz
Th1s_1$_4_c4ll
Fr0m_Th3_b1n4rY
T0_d3st1n4t10n
c4ll1ng_0p3r4t0r
Checking %s
calling...
127.0.0.1
32687
ENV_INIT
init: Ok.
Connected
GET /index.html HTTP/1.1
Host: cscbe-localhost.edu.be
Connection: close 
void asio::detail::posix_event::signal_all(Lock&) [with Lock = asio::detail::conditionally_enabled_mutex::scoped_lock]
/usr/include/asio/detail/posix_event.hpp
lock.locked()
void asio::detail::posix_event::unlock_and_signal_one(Lock&) [with Lock = asio::detail::conditionally_enabled_mutex::scoped_lock]
bool asio::detail::posix_event::maybe_unlock_and_signal_one(Lock&) [with Lock = asio::detail::conditionally_enabled_mutex::scoped_lock]
void asio::detail::posix_event::clear(Lock&) [with Lock = asio::detail::conditionally_enabled_mutex::scoped_lock]
void asio::detail::posix_event::wait(Lock&) [with Lock = asio::detail::conditionally_enabled_mutex::scoped_lock]
basic_string::_M_construct null not valid
cannot create std::vector larger than max_size()
*NSt6thread11_State_implINS_8_InvokerISt5tupleIJZ4mainEUlvE_EEEEEE
N4asio10io_context19basic_executor_typeISaIvELj4EEE
N4asio6detail14typeid_wrapperINS0_23reactive_socket_serviceINS_2ip3tcpEEEEE
N4asio10io_context19basic_executor_typeISaIvELj0EEE
N4asio6detail14typeid_wrapperINS0_13epoll_reactorEEE
N4asio6detail14typeid_wrapperINS0_9schedulerEEE
N4asio6detail12posix_thread4funcINS0_9scheduler15thread_functionEEE
N4asio6detail23reactive_socket_serviceINS_2ip3tcpEEE
N4asio6detail30execution_context_service_baseINS0_23reactive_socket_serviceINS_2ip3tcpEEEEE
N4asio2ip16bad_address_castE
N4asio6detail13epoll_reactorE
N4asio6detail30execution_context_service_baseINS0_13epoll_reactorEEE
N4asio6detail9schedulerE
N4asio6detail30execution_context_service_baseINS0_9schedulerEEE
N4asio6detail12posix_thread9func_baseE
N4asio21invalid_service_ownerE
N4asio22service_already_existsE
N4asio17execution_context7serviceE
N4asio5error6detail13misc_categoryE
N4asio5error6detail17addrinfo_categoryE
N4asio5error6detail14netdb_categoryE
N4asio6detail15system_categoryE
N4asio9execution12bad_executorE
N4asio19multiple_exceptionsE
N4asio6detail28reactive_socket_service_baseE
N4asio6detail15io_context_bitsE
N4asio6detail11noncopyableE
N4asio6detail14thread_contextE
:*3$"
zPLR
	H&p
GCC: (Ubuntu 11.4.0-1ubuntu1~22.04) 11.4.0
Scrt1.o
__abi_tag
crtstuff.c
deregister_tm_clones
__do_global_dtors_aux
completed.0
__do_global_dtors_aux_fini_array_entry
frame_dummy
__frame_dummy_init_array_entry
main.cpp
_ZStL8__ioinit
_ZN9__gnu_cxxL21__default_lock_policyE
_ZN6__pstl9execution2v1L3seqE
_ZN6__pstl9execution2v1L3parE
_ZN6__pstl9execution2v1L9par_unseqE
_ZN6__pstl9execution2v1L5unseqE
_ZN4asio9execution12_GLOBAL__N_1L8set_doneE
_ZN4asio9execution12_GLOBAL__N_1L9set_errorE
_ZN4asio9execution12_GLOBAL__N_1L9set_valueE
_ZN4asio9execution12_GLOBAL__N_1L7executeE
_ZN4asio9execution12_GLOBAL__N_1L8scheduleE
_ZN4asio9execution12_GLOBAL__N_1L5startE
_ZN4asio9execution12_GLOBAL__N_1L7connectE
_ZN4asio9executionL9allocatorE
_ZN4asio12_GLOBAL__N_1L6preferE
_ZN4asio12_GLOBAL__N_1L5queryE
_ZN4asio12_GLOBAL__N_1L7requireE
_ZN4asio9executionL8blockingE
_ZN4asio6detailL14invalid_socketE
_ZN4asio6detailL19socket_error_retvalE
_ZN4asio6detailL19max_addr_v4_str_lenE
_ZN4asio6detailL19max_addr_v6_str_lenE
_ZN4asio6detailL11max_iov_lenE
_ZN4asio6detailL26custom_socket_option_levelE
_ZN4asio6detailL32enable_connection_aborted_optionE
_ZN4asio6detailL18always_fail_optionE
_ZN4asio5errorL15system_categoryE
_ZN4asio5errorL14netdb_categoryE
_ZN4asio5errorL17addrinfo_categoryE
_ZN4asio5errorL13misc_categoryE
_ZN4asio13resolver_errcL9try_againE
_ZN4asio9executionL19blocking_adaptationE
_ZN4asio9executionL14bulk_guaranteeE
_ZN4asio9execution12_GLOBAL__N_1L12bulk_executeE
_ZN4asio9executionL7contextE
_ZN4asio9executionL7mappingE
_ZN4asio9executionL9occupancyE
_ZN4asio9executionL16outstanding_workE
_ZN4asio9executionL12relationshipE
_ZN4asio9execution12_GLOBAL__N_1L6submitE
_ZN4asioL12executor_argE
_ZN4asioL8detachedE
_ZN4asio12_GLOBAL__N_1L15require_conceptE
_ZN4asio9this_coroL8executorE
_ZN4asioL10use_futureE
_ZZ12grabSomeDataRN4asio19basic_stream_socketINS_2ip3tcpENS_9execution12any_executorIJNS3_12context_as_tIRNS_17execution_contextEEENS3_6detail8blocking7never_tILi0EEENS3_11prefer_onlyINSA_10possibly_tILi0EEEEENSD_INS9_16outstanding_work9tracked_tILi0EEEEENSD_INSH_11untracked_tILi0EEEEENSD_INS9_12relationship6fork_tILi0EEEEENSD_INSO_14continuation_tILi0EEEEEEEEEEENKUlSt10error_codemE_clESY_m
_ZN4asio19basic_stream_socketINS_2ip3tcpENS_9execution12any_executorIJNS3_12context_as_tIRNS_17execution_contextEEENS3_6detail8blocking7never_tILi0EEENS3_11prefer_onlyINSA_10possibly_tILi0EEEEENSD_INS9_16outstanding_work9tracked_tILi0EEEEENSD_INSH_11untracked_tILi0EEEEENSD_INS9_12relationship6fork_tILi0EEEEENSD_INSO_14continuation_tILi0EEEEEEEEE15async_read_someINS_17mutable_buffers_1EZ12grabSomeDataRSW_EUlSt10error_codemE_EEDaRKT_OT0_
_ZN4asio14async_initiateIZ12grabSomeDataRNS_19basic_stream_socketINS_2ip3tcpENS_9execution12any_executorIJNS4_12context_as_tIRNS_17execution_contextEEENS4_6detail8blocking7never_tILi0EEENS4_11prefer_onlyINSB_10possibly_tILi0EEEEENSE_INSA_16outstanding_work9tracked_tILi0EEEEENSE_INSI_11untracked_tILi0EEEEENSE_INSA_12relationship6fork_tILi0EEEEENSE_INSP_14continuation_tILi0EEEEEEEEEEEUlSt10error_codemE_FvSZ_mENSX_22initiate_async_receiveEJRKNS_17mutable_buffers_1EiEEENSt9enable_ifIXsrNS_6detail31async_result_has_initiate_memfnIT_T0_EE5valueEDTclsrNS_12async_resultINSt5decayIS19_E4typeES1A_EE8initiatecl7declvalIOT1_EEcl7declvalIOS19_EEspcl7declvalIOT2_EEEEE4typeES1I_RS19_DpS1L_
_ZZ4mainENKUlvE_clEv
_ZNSt6threadC1IZ4mainEUlvE_JEvEEOT_DpOT0_
_ZN4asio12async_resultIZ12grabSomeDataRNS_19basic_stream_socketINS_2ip3tcpENS_9execution12any_executorIJNS4_12context_as_tIRNS_17execution_contextEEENS4_6detail8blocking7never_tILi0EEENS4_11prefer_onlyINSB_10possibly_tILi0EEEEENSE_INSA_16outstanding_work9tracked_tILi0EEEEENSE_INSI_11untracked_tILi0EEEEENSE_INSA_12relationship6fork_tILi0EEEEENSE_INSP_14continuation_tILi0EEEEEEEEEEEUlSt10error_codemE_FvSZ_mEE8initiateINSX_22initiate_async_receiveES10_JRKNS_17mutable_buffers_1EiEEEvOT_OT0_DpOT1_
_ZNSt6threadC2IZ4mainEUlvE_JEvEEOT_DpOT0_
_ZSt7forwardIZ4mainEUlvE_EOT_RNSt16remove_referenceIS1_E4typeE
_ZNSt6thread11_State_implINS_8_InvokerISt5tupleIJZ4mainEUlvE_EEEEEC1IJS3_EEEDpOT_
_ZNK4asio19basic_stream_socketINS_2ip3tcpENS_9execution12any_executorIJNS3_12context_as_tIRNS_17execution_contextEEENS3_6detail8blocking7never_tILi0EEENS3_11prefer_onlyINSA_10possibly_tILi0EEEEENSD_INS9_16outstanding_work9tracked_tILi0EEEEENSD_INSH_11untracked_tILi0EEEEENSD_INS9_12relationship6fork_tILi0EEEEENSD_INSO_14continuation_tILi0EEEEEEEEE22initiate_async_receiveclIZ12grabSomeDataRSW_EUlSt10error_codemE_NS_17mutable_buffers_1EEEvOT_RKT0_i
_ZNSt6thread11_State_implINS_8_InvokerISt5tupleIJZ4mainEUlvE_EEEEEC2IJS3_EEEDpOT_
_ZTVNSt6thread11_State_implINS_8_InvokerISt5tupleIJZ4mainEUlvE_EEEEEE
_ZNSt6thread8_InvokerISt5tupleIJZ4mainEUlvE_EEEC1IJS2_EEEDpOT_
_ZN4asio6detail16non_const_lvalueIZ12grabSomeDataRNS_19basic_stream_socketINS_2ip3tcpENS_9execution12any_executorIJNS5_12context_as_tIRNS_17execution_contextEEENS5_6detail8blocking7never_tILi0EEENS5_11prefer_onlyINSC_10possibly_tILi0EEEEENSF_INSB_16outstanding_work9tracked_tILi0EEEEENSF_INSJ_11untracked_tILi0EEEEENSF_INSB_12relationship6fork_tILi0EEEEENSF_INSQ_14continuation_tILi0EEEEEEEEEEEUlSt10error_codemE_EC1ERS11_
_ZN4asio6detail28reactive_socket_service_base13async_receiveINS_17mutable_buffers_1EZ12grabSomeDataRNS_19basic_stream_socketINS_2ip3tcpENS_9execution12any_executorIJNS7_12context_as_tIRNS_17execution_contextEEENS7_6detail8blocking7never_tILi0EEENS7_11prefer_onlyINSE_10possibly_tILi0EEEEENSH_INSD_16outstanding_work9tracked_tILi0EEEEENSH_INSL_11untracked_tILi0EEEEENSH_INSD_12relationship6fork_tILi0EEEEENSH_INSS_14continuation_tILi0EEEEEEEEEEEUlSt10error_codemE_SZ_EEvRNS1_24base_implementation_typeERKT_iRT0_RKT1_
_ZNSt6thread8_InvokerISt5tupleIJZ4mainEUlvE_EEEC2IJS2_EEEDpOT_
_ZNSt5tupleIJZ4mainEUlvE_EEC1IJS0_ELb1ELb1EEEDpOT_
_ZN4asio6detail16non_const_lvalueIZ12grabSomeDataRNS_19basic_stream_socketINS_2ip3tcpENS_9execution12any_executorIJNS5_12context_as_tIRNS_17execution_contextEEENS5_6detail8blocking7never_tILi0EEENS5_11prefer_onlyINSC_10possibly_tILi0EEEEENSF_INSB_16outstanding_work9tracked_tILi0EEEEENSF_INSJ_11untracked_tILi0EEEEENSF_INSB_12relationship6fork_tILi0EEEEENSF_INSQ_14continuation_tILi0EEEEEEEEEEEUlSt10error_codemE_EC2ERS11_
_ZSt9addressofIZ12grabSomeDataRN4asio19basic_stream_socketINS0_2ip3tcpENS0_9execution12any_executorIJNS4_12context_as_tIRNS0_17execution_contextEEENS4_6detail8blocking7never_tILi0EEENS4_11prefer_onlyINSB_10possibly_tILi0EEEEENSE_INSA_16outstanding_work9tracked_tILi0EEEEENSE_INSI_11untracked_tILi0EEEEENSE_INSA_12relationship6fork_tILi0EEEEENSE_INSP_14continuation_tILi0EEEEEEEEEEEUlSt10error_codemE_EPT_RS11_
_ZSt11__addressofIZ12grabSomeDataRN4asio19basic_stream_socketINS0_2ip3tcpENS0_9execution12any_executorIJNS4_12context_as_tIRNS0_17execution_contextEEENS4_6detail8blocking7never_tILi0EEENS4_11prefer_onlyINSB_10possibly_tILi0EEEEENSE_INSA_16outstanding_work9tracked_tILi0EEEEENSE_INSI_11untracked_tILi0EEEEENSE_INSA_12relationship6fork_tILi0EEEEENSE_INSP_14continuation_tILi0EEEEEEEEEEEUlSt10error_codemE_EPT_RS11_
_ZN25asio_handler_cont_helpers15is_continuationIZ12grabSomeDataRN4asio19basic_stream_socketINS1_2ip3tcpENS1_9execution12any_executorIJNS5_12context_as_tIRNS1_17execution_contextEEENS5_6detail8blocking7never_tILi0EEENS5_11prefer_onlyINSC_10possibly_tILi0EEEEENSF_INSB_16outstanding_work9tracked_tILi0EEEEENSF_INSJ_11untracked_tILi0EEEEENSF_INSB_12relationship6fork_tILi0EEEEENSF_INSQ_14continuation_tILi0EEEEEEEEEEEUlSt10error_codemE_EEbRT_
_ZN4asio6detail23reactive_socket_recv_opINS_17mutable_buffers_1EZ12grabSomeDataRNS_19basic_stream_socketINS_2ip3tcpENS_9execution12any_executorIJNS6_12context_as_tIRNS_17execution_contextEEENS6_6detail8blocking7never_tILi0EEENS6_11prefer_onlyINSD_10possibly_tILi0EEEEENSG_INSC_16outstanding_work9tracked_tILi0EEEEENSG_INSK_11untracked_tILi0EEEEENSG_INSC_12relationship6fork_tILi0EEEEENSG_INSR_14continuation_tILi0EEEEEEEEEEEUlSt10error_codemE_SY_E3ptr8allocateERS12_
_ZN4asio6detail23reactive_socket_recv_opINS_17mutable_buffers_1EZ12grabSomeDataRNS_19basic_stream_socketINS_2ip3tcpENS_9execution12any_executorIJNS6_12context_as_tIRNS_17execution_contextEEENS6_6detail8blocking7never_tILi0EEENS6_11prefer_onlyINSD_10possibly_tILi0EEEEENSG_INSC_16outstanding_work9tracked_tILi0EEEEENSG_INSK_11untracked_tILi0EEEEENSG_INSC_12relationship6fork_tILi0EEEEENSG_INSR_14continuation_tILi0EEEEEEEEEEEUlSt10error_codemE_SY_EC1ERKS11_ihRKS2_iRS12_RKSY_
_ZN4asio6detail23reactive_socket_recv_opINS_17mutable_buffers_1EZ12grabSomeDataRNS_19basic_stream_socketINS_2ip3tcpENS_9execution12any_executorIJNS6_12context_as_tIRNS_17execution_contextEEENS6_6detail8blocking7never_tILi0EEENS6_11prefer_onlyINSD_10possibly_tILi0EEEEENSG_INSC_16outstanding_work9tracked_tILi0EEEEENSG_INSK_11untracked_tILi0EEEEENSG_INSC_12relationship6fork_tILi0EEEEENSG_INSR_14continuation_tILi0EEEEEEEEEEEUlSt10error_codemE_SY_E3ptrD1Ev
_ZNSt5tupleIJZ4mainEUlvE_EEC2IJS0_ELb1ELb1EEEDpOT_
_ZNSt11_Tuple_implILm0EJZ4mainEUlvE_EEC2IS0_EEOT_
_ZN4asio24get_associated_allocatorIZ12grabSomeDataRNS_19basic_stream_socketINS_2ip3tcpENS_9execution12any_executorIJNS4_12context_as_tIRNS_17execution_contextEEENS4_6detail8blocking7never_tILi0EEENS4_11prefer_onlyINSB_10possibly_tILi0EEEEENSE_INSA_16outstanding_work9tracked_tILi0EEEEENSE_INSI_11untracked_tILi0EEEEENSE_INSA_12relationship6fork_tILi0EEEEENSE_INSP_14continuation_tILi0EEEEEEEEEEEUlSt10error_codemE_EENS_20associated_allocatorIT_SaIvEE4typeERKS12_
_ZN4asio6detail18get_hook_allocatorIZ12grabSomeDataRNS_19basic_stream_socketINS_2ip3tcpENS_9execution12any_executorIJNS5_12context_as_tIRNS_17execution_contextEEENS5_6detail8blocking7never_tILi0EEENS5_11prefer_onlyINSC_10possibly_tILi0EEEEENSF_INSB_16outstanding_work9tracked_tILi0EEEEENSF_INSJ_11untracked_tILi0EEEEENSF_INSB_12relationship6fork_tILi0EEEEENSF_INSQ_14continuation_tILi0EEEEEEEEEEEUlSt10error_codemE_SaIvEE3getERS11_RKS12_
_ZN4asio6detail14hook_allocatorIZ12grabSomeDataRNS_19basic_stream_socketINS_2ip3tcpENS_9execution12any_executorIJNS5_12context_as_tIRNS_17execution_contextEEENS5_6detail8blocking7never_tILi0EEENS5_11prefer_onlyINSC_10possibly_tILi0EEEEENSF_INSB_16outstanding_work9tracked_tILi0EEEEENSF_INSJ_11untracked_tILi0EEEEENSF_INSB_12relationship6fork_tILi0EEEEENSF_INSQ_14continuation_tILi0EEEEEEEEEEEUlSt10error_codemE_NS0_23reactive_socket_recv_opINS_17mutable_buffers_1ES11_SX_EEEC1IvEERKNS1_IS11_T_EE
_ZN4asio6detail14hook_allocatorIZ12grabSomeDataRNS_19basic_stream_socketINS_2ip3tcpENS_9execution12any_executorIJNS5_12context_as_tIRNS_17execution_contextEEENS5_6detail8blocking7never_tILi0EEENS5_11prefer_onlyINSC_10possibly_tILi0EEEEENSF_INSB_16outstanding_work9tracked_tILi0EEEEENSF_INSJ_11untracked_tILi0EEEEENSF_INSB_12relationship6fork_tILi0EEEEENSF_INSQ_14continuation_tILi0EEEEEEEEEEEUlSt10error_codemE_NS0_23reactive_socket_recv_opINS_17mutable_buffers_1ES11_SX_EEE8allocateEm
_ZN4asio6detail23reactive_socket_recv_opINS_17mutable_buffers_1EZ12grabSomeDataRNS_19basic_stream_socketINS_2ip3tcpENS_9execution12any_executorIJNS6_12context_as_tIRNS_17execution_contextEEENS6_6detail8blocking7never_tILi0EEENS6_11prefer_onlyINSD_10possibly_tILi0EEEEENSG_INSC_16outstanding_work9tracked_tILi0EEEEENSG_INSK_11untracked_tILi0EEEEENSG_INSC_12relationship6fork_tILi0EEEEENSG_INSR_14continuation_tILi0EEEEEEEEEEEUlSt10error_codemE_SY_E3ptrD2Ev
_ZN4asio6detail23reactive_socket_recv_opINS_17mutable_buffers_1EZ12grabSomeDataRNS_19basic_stream_socketINS_2ip3tcpENS_9execution12any_executorIJNS6_12context_as_tIRNS_17execution_contextEEENS6_6detail8blocking7never_tILi0EEENS6_11prefer_onlyINSD_10possibly_tILi0EEEEENSG_INSC_16outstanding_work9tracked_tILi0EEEEENSG_INSK_11untracked_tILi0EEEEENSG_INSC_12relationship6fork_tILi0EEEEENSG_INSR_14continuation_tILi0EEEEEEEEEEEUlSt10error_codemE_SY_E3ptr5resetEv
_ZN4asio6detail12handler_workIZ12grabSomeDataRNS_19basic_stream_socketINS_2ip3tcpENS_9execution12any_executorIJNS5_12context_as_tIRNS_17execution_contextEEENS5_6detail8blocking7never_tILi0EEENS5_11prefer_onlyINSC_10possibly_tILi0EEEEENSF_INSB_16outstanding_work9tracked_tILi0EEEEENSF_INSJ_11untracked_tILi0EEEEENSF_INSB_12relationship6fork_tILi0EEEEENSF_INSQ_14continuation_tILi0EEEEEEEEEEEUlSt10error_codemE_SX_vED2Ev
_ZN4asio6detail12handler_workIZ12grabSomeDataRNS_19basic_stream_socketINS_2ip3tcpENS_9execution12any_executorIJNS5_12context_as_tIRNS_17execution_contextEEENS5_6detail8blocking7never_tILi0EEENS5_11prefer_onlyINSC_10possibly_tILi0EEEEENSF_INSB_16outstanding_work9tracked_tILi0EEEEENSF_INSJ_11untracked_tILi0EEEEENSF_INSB_12relationship6fork_tILi0EEEEENSF_INSQ_14continuation_tILi0EEEEEEEEEEEUlSt10error_codemE_SX_vED1Ev
_ZN4asio6detail23reactive_socket_recv_opINS_17mutable_buffers_1EZ12grabSomeDataRNS_19basic_stream_socketINS_2ip3tcpENS_9execution12any_executorIJNS6_12context_as_tIRNS_17execution_contextEEENS6_6detail8blocking7never_tILi0EEENS6_11prefer_onlyINSD_10possibly_tILi0EEEEENSG_INSC_16outstanding_work9tracked_tILi0EEEEENSG_INSK_11untracked_tILi0EEEEENSG_INSC_12relationship6fork_tILi0EEEEENSG_INSR_14continuation_tILi0EEEEEEEEEEEUlSt10error_codemE_SY_EC2ERKS11_ihRKS2_iRS12_RKSY_
_ZN4asio6detail23reactive_socket_recv_opINS_17mutable_buffers_1EZ12grabSomeDataRNS_19basic_stream_socketINS_2ip3tcpENS_9execution12any_executorIJNS6_12context_as_tIRNS_17execution_contextEEENS6_6detail8blocking7never_tILi0EEENS6_11prefer_onlyINSD_10possibly_tILi0EEEEENSG_INSC_16outstanding_work9tracked_tILi0EEEEENSG_INSK_11untracked_tILi0EEEEENSG_INSC_12relationship6fork_tILi0EEEEENSG_INSR_14continuation_tILi0EEEEEEEEEEEUlSt10error_codemE_SY_E11do_completeEPvPNS0_19scheduler_operationERKS11_m
_ZN4asio6detail12handler_workIZ12grabSomeDataRNS_19basic_stream_socketINS_2ip3tcpENS_9execution12any_executorIJNS5_12context_as_tIRNS_17execution_contextEEENS5_6detail8blocking7never_tILi0EEENS5_11prefer_onlyINSC_10possibly_tILi0EEEEENSF_INSB_16outstanding_work9tracked_tILi0EEEEENSF_INSJ_11untracked_tILi0EEEEENSF_INSB_12relationship6fork_tILi0EEEEENSF_INSQ_14continuation_tILi0EEEEEEEEEEEUlSt10error_codemE_SX_vEC1ERS11_RKSX_
_ZNSt10_Head_baseILm0EZ4mainEUlvE_Lb0EEC2IS0_EEOT_
_ZN4asio6detail14hook_allocatorIZ12grabSomeDataRNS_19basic_stream_socketINS_2ip3tcpENS_9execution12any_executorIJNS5_12context_as_tIRNS_17execution_contextEEENS5_6detail8blocking7never_tILi0EEENS5_11prefer_onlyINSC_10possibly_tILi0EEEEENSF_INSB_16outstanding_work9tracked_tILi0EEEEENSF_INSJ_11untracked_tILi0EEEEENSF_INSB_12relationship6fork_tILi0EEEEENSF_INSQ_14continuation_tILi0EEEEEEEEEEEUlSt10error_codemE_vEC1ERS11_
_ZN4asio20associated_allocatorIZ12grabSomeDataRNS_19basic_stream_socketINS_2ip3tcpENS_9execution12any_executorIJNS4_12context_as_tIRNS_17execution_contextEEENS4_6detail8blocking7never_tILi0EEENS4_11prefer_onlyINSB_10possibly_tILi0EEEEENSE_INSA_16outstanding_work9tracked_tILi0EEEEENSE_INSI_11untracked_tILi0EEEEENSE_INSA_12relationship6fork_tILi0EEEEENSE_INSP_14continuation_tILi0EEEEEEEEEEEUlSt10error_codemE_SaIvEE3getERKS10_RKS11_
_ZN4asio6detail14hook_allocatorIZ12grabSomeDataRNS_19basic_stream_socketINS_2ip3tcpENS_9execution12any_executorIJNS5_12context_as_tIRNS_17execution_contextEEENS5_6detail8blocking7never_tILi0EEENS5_11prefer_onlyINSC_10possibly_tILi0EEEEENSF_INSB_16outstanding_work9tracked_tILi0EEEEENSF_INSJ_11untracked_tILi0EEEEENSF_INSB_12relationship6fork_tILi0EEEEENSF_INSQ_14continuation_tILi0EEEEEEEEEEEUlSt10error_codemE_NS0_23reactive_socket_recv_opINS_17mutable_buffers_1ES11_SX_EEEC2IvEERKNS1_IS11_T_EE
_ZN26asio_handler_alloc_helpers8allocateIZ12grabSomeDataRN4asio19basic_stream_socketINS1_2ip3tcpENS1_9execution12any_executorIJNS5_12context_as_tIRNS1_17execution_contextEEENS5_6detail8blocking7never_tILi0EEENS5_11prefer_onlyINSC_10possibly_tILi0EEEEENSF_INSB_16outstanding_work9tracked_tILi0EEEEENSF_INSJ_11untracked_tILi0EEEEENSF_INSB_12relationship6fork_tILi0EEEEENSF_INSQ_14continuation_tILi0EEEEEEEEEEEUlSt10error_codemE_EEPvmRT_
_ZN4asio6detail23reactive_socket_recv_opINS_17mutable_buffers_1EZ12grabSomeDataRNS_19basic_stream_socketINS_2ip3tcpENS_9execution12any_executorIJNS6_12context_as_tIRNS_17execution_contextEEENS6_6detail8blocking7never_tILi0EEENS6_11prefer_onlyINSD_10possibly_tILi0EEEEENSG_INSC_16outstanding_work9tracked_tILi0EEEEENSG_INSK_11untracked_tILi0EEEEENSG_INSC_12relationship6fork_tILi0EEEEENSG_INSR_14continuation_tILi0EEEEEEEEEEEUlSt10error_codemE_SY_ED2Ev
_ZN4asio6detail23reactive_socket_recv_opINS_17mutable_buffers_1EZ12grabSomeDataRNS_19basic_stream_socketINS_2ip3tcpENS_9execution12any_executorIJNS6_12context_as_tIRNS_17execution_contextEEENS6_6detail8blocking7never_tILi0EEENS6_11prefer_onlyINSD_10possibly_tILi0EEEEENSG_INSC_16outstanding_work9tracked_tILi0EEEEENSG_INSK_11untracked_tILi0EEEEENSG_INSC_12relationship6fork_tILi0EEEEENSG_INSR_14continuation_tILi0EEEEEEEEEEEUlSt10error_codemE_SY_ED1Ev
_ZN4asio6detail14hook_allocatorIZ12grabSomeDataRNS_19basic_stream_socketINS_2ip3tcpENS_9execution12any_executorIJNS5_12context_as_tIRNS_17execution_contextEEENS5_6detail8blocking7never_tILi0EEENS5_11prefer_onlyINSC_10possibly_tILi0EEEEENSF_INSB_16outstanding_work9tracked_tILi0EEEEENSF_INSJ_11untracked_tILi0EEEEENSF_INSB_12relationship6fork_tILi0EEEEENSF_INSQ_14continuation_tILi0EEEEEEEEEEEUlSt10error_codemE_NS0_23reactive_socket_recv_opINS_17mutable_buffers_1ES11_SX_EEE10deallocateEPS14_m
_ZN4asio6detail12handler_workIZ12grabSomeDataRNS_19basic_stream_socketINS_2ip3tcpENS_9execution12any_executorIJNS5_12context_as_tIRNS_17execution_contextEEENS5_6detail8blocking7never_tILi0EEENS5_11prefer_onlyINSC_10possibly_tILi0EEEEENSF_INSB_16outstanding_work9tracked_tILi0EEEEENSF_INSJ_11untracked_tILi0EEEEENSF_INSB_12relationship6fork_tILi0EEEEENSF_INSQ_14continuation_tILi0EEEEEEEEEEEUlSt10error_codemE_SX_vEC2EOS12_
_ZN4asio6detail12handler_workIZ12grabSomeDataRNS_19basic_stream_socketINS_2ip3tcpENS_9execution12any_executorIJNS5_12context_as_tIRNS_17execution_contextEEENS5_6detail8blocking7never_tILi0EEENS5_11prefer_onlyINSC_10possibly_tILi0EEEEENSF_INSB_16outstanding_work9tracked_tILi0EEEEENSF_INSJ_11untracked_tILi0EEEEENSF_INSB_12relationship6fork_tILi0EEEEENSF_INSQ_14continuation_tILi0EEEEEEEEEEEUlSt10error_codemE_SX_vEC1EOS12_
_ZN4asio6detail7binder2IZ12grabSomeDataRNS_19basic_stream_socketINS_2ip3tcpENS_9execution12any_executorIJNS5_12context_as_tIRNS_17execution_contextEEENS5_6detail8blocking7never_tILi0EEENS5_11prefer_onlyINSC_10possibly_tILi0EEEEENSF_INSB_16outstanding_work9tracked_tILi0EEEEENSF_INSJ_11untracked_tILi0EEEEENSF_INSB_12relationship6fork_tILi0EEEEENSF_INSQ_14continuation_tILi0EEEEEEEEEEEUlSt10error_codemE_S10_mEC1ERS11_RKS10_RKm
_ZN4asio6detail12handler_workIZ12grabSomeDataRNS_19basic_stream_socketINS_2ip3tcpENS_9execution12any_executorIJNS5_12context_as_tIRNS_17execution_contextEEENS5_6detail8blocking7never_tILi0EEENS5_11prefer_onlyINSC_10possibly_tILi0EEEEENSF_INSB_16outstanding_work9tracked_tILi0EEEEENSF_INSJ_11untracked_tILi0EEEEENSF_INSB_12relationship6fork_tILi0EEEEENSF_INSQ_14continuation_tILi0EEEEEEEEEEEUlSt10error_codemE_SX_vE8completeINS0_7binder2IS11_S10_mEEEEvRT_RS11_
_ZN4asio6detail12handler_workIZ12grabSomeDataRNS_19basic_stream_socketINS_2ip3tcpENS_9execution12any_executorIJNS5_12context_as_tIRNS_17execution_contextEEENS5_6detail8blocking7never_tILi0EEENS5_11prefer_onlyINSC_10possibly_tILi0EEEEENSF_INSB_16outstanding_work9tracked_tILi0EEEEENSF_INSJ_11untracked_tILi0EEEEENSF_INSB_12relationship6fork_tILi0EEEEENSF_INSQ_14continuation_tILi0EEEEEEEEEEEUlSt10error_codemE_SX_vEC2ERS11_RKSX_
_ZN4asio6detail14hook_allocatorIZ12grabSomeDataRNS_19basic_stream_socketINS_2ip3tcpENS_9execution12any_executorIJNS5_12context_as_tIRNS_17execution_contextEEENS5_6detail8blocking7never_tILi0EEENS5_11prefer_onlyINSC_10possibly_tILi0EEEEENSF_INSB_16outstanding_work9tracked_tILi0EEEEENSF_INSJ_11untracked_tILi0EEEEENSF_INSB_12relationship6fork_tILi0EEEEENSF_INSQ_14continuation_tILi0EEEEEEEEEEEUlSt10error_codemE_vEC2ERS11_
_ZN4asio6detail25associated_allocator_implIZ12grabSomeDataRNS_19basic_stream_socketINS_2ip3tcpENS_9execution12any_executorIJNS5_12context_as_tIRNS_17execution_contextEEENS5_6detail8blocking7never_tILi0EEENS5_11prefer_onlyINSC_10possibly_tILi0EEEEENSF_INSB_16outstanding_work9tracked_tILi0EEEEENSF_INSJ_11untracked_tILi0EEEEENSF_INSB_12relationship6fork_tILi0EEEEENSF_INSQ_14continuation_tILi0EEEEEEEEEEEUlSt10error_codemE_SaIvEvE3getERKS11_RKS12_
_ZN26asio_handler_alloc_helpers10deallocateIZ12grabSomeDataRN4asio19basic_stream_socketINS1_2ip3tcpENS1_9execution12any_executorIJNS5_12context_as_tIRNS1_17execution_contextEEENS5_6detail8blocking7never_tILi0EEENS5_11prefer_onlyINSC_10possibly_tILi0EEEEENSF_INSB_16outstanding_work9tracked_tILi0EEEEENSF_INSJ_11untracked_tILi0EEEEENSF_INSB_12relationship6fork_tILi0EEEEENSF_INSQ_14continuation_tILi0EEEEEEEEEEEUlSt10error_codemE_EEvPvmRT_
_ZN4asio6detail7binder2IZ12grabSomeDataRNS_19basic_stream_socketINS_2ip3tcpENS_9execution12any_executorIJNS5_12context_as_tIRNS_17execution_contextEEENS5_6detail8blocking7never_tILi0EEENS5_11prefer_onlyINSC_10possibly_tILi0EEEEENSF_INSB_16outstanding_work9tracked_tILi0EEEEENSF_INSJ_11untracked_tILi0EEEEENSF_INSB_12relationship6fork_tILi0EEEEENSF_INSQ_14continuation_tILi0EEEEEEEEEEEUlSt10error_codemE_S10_mEC2ERS11_RKS10_RKm
_ZN27asio_handler_invoke_helpers6invokeIN4asio6detail7binder2IZ12grabSomeDataRNS1_19basic_stream_socketINS1_2ip3tcpENS1_9execution12any_executorIJNS7_12context_as_tIRNS1_17execution_contextEEENS7_6detail8blocking7never_tILi0EEENS7_11prefer_onlyINSE_10possibly_tILi0EEEEENSH_INSD_16outstanding_work9tracked_tILi0EEEEENSH_INSL_11untracked_tILi0EEEEENSH_INSD_12relationship6fork_tILi0EEEEENSH_INSS_14continuation_tILi0EEEEEEEEEEEUlSt10error_codemE_S12_mEES13_EEvRT_RT0_
_ZN4asio6detail17handler_work_baseINS_9execution12any_executorIJNS2_12context_as_tIRNS_17execution_contextEEENS2_6detail8blocking7never_tILi0EEENS2_11prefer_onlyINS9_10possibly_tILi0EEEEENSC_INS8_16outstanding_work9tracked_tILi0EEEEENSC_INSG_11untracked_tILi0EEEEENSC_INS8_12relationship6fork_tILi0EEEEENSC_INSN_14continuation_tILi0EEEEEEEEvNS_10io_contextENS_8executorEvE8dispatchINS0_7binder2IZ12grabSomeDataRNS_19basic_stream_socketINS_2ip3tcpESU_EEEUlSt10error_codemE_S15_mEES16_EEvRT_RT0_
_ZN4asio19asio_handler_invokeINS_6detail7binder2IZ12grabSomeDataRNS_19basic_stream_socketINS_2ip3tcpENS_9execution12any_executorIJNS6_12context_as_tIRNS_17execution_contextEEENS6_6detail8blocking7never_tILi0EEENS6_11prefer_onlyINSD_10possibly_tILi0EEEEENSG_INSC_16outstanding_work9tracked_tILi0EEEEENSG_INSK_11untracked_tILi0EEEEENSG_INSC_12relationship6fork_tILi0EEEEENSG_INSR_14continuation_tILi0EEEEEEEEEEEUlSt10error_codemE_S11_mEEEEvRT_z
_ZNK25asio_execution_execute_fn4implclIN4asio9execution12any_executorIJNS3_12context_as_tIRNS2_17execution_contextEEENS3_6detail8blocking7never_tILi0EEENS3_11prefer_onlyINSA_10possibly_tILi0EEEEENSD_INS9_16outstanding_work9tracked_tILi0EEEEENSD_INSH_11untracked_tILi0EEEEENSD_INS9_12relationship6fork_tILi0EEEEENSD_INSO_14continuation_tILi0EEEEEEEENS2_6detail7binder2IZ12grabSomeDataRNS2_19basic_stream_socketINS2_2ip3tcpESV_EEEUlSt10error_codemE_S13_mEEEENSt9enable_ifIXeqsrNS_11call_traitsIT_FvT0_EvEE8overloadLNS_13overload_typeE0EENS1B_11result_typeEE4typeEOS18_OS19_
_ZN4asio6detail7binder2IZ12grabSomeDataRNS_19basic_stream_socketINS_2ip3tcpENS_9execution12any_executorIJNS5_12context_as_tIRNS_17execution_contextEEENS5_6detail8blocking7never_tILi0EEENS5_11prefer_onlyINSC_10possibly_tILi0EEEEENSF_INSB_16outstanding_work9tracked_tILi0EEEEENSF_INSJ_11untracked_tILi0EEEEENSF_INSB_12relationship6fork_tILi0EEEEENSF_INSQ_14continuation_tILi0EEEEEEEEEEEUlSt10error_codemE_S10_mEclEv
_ZNK4asio9execution6detail17any_executor_base7executeINS_6detail7binder2IZ12grabSomeDataRNS_19basic_stream_socketINS_2ip3tcpENS0_12any_executorIJNS0_12context_as_tIRNS_17execution_contextEEENS1_8blocking7never_tILi0EEENS0_11prefer_onlyINSE_10possibly_tILi0EEEEENSH_INS1_16outstanding_work9tracked_tILi0EEEEENSH_INSL_11untracked_tILi0EEEEENSH_INS1_12relationship6fork_tILi0EEEEENSH_INSS_14continuation_tILi0EEEEEEEEEEEUlSt10error_codemE_S12_mEEEEvOT_
_ZN4asio6detail16non_const_lvalueINS0_7binder2IZ12grabSomeDataRNS_19basic_stream_socketINS_2ip3tcpENS_9execution12any_executorIJNS6_12context_as_tIRNS_17execution_contextEEENS6_6detail8blocking7never_tILi0EEENS6_11prefer_onlyINSD_10possibly_tILi0EEEEENSG_INSC_16outstanding_work9tracked_tILi0EEEEENSG_INSK_11untracked_tILi0EEEEENSG_INSC_12relationship6fork_tILi0EEEEENSG_INSR_14continuation_tILi0EEEEEEEEEEEUlSt10error_codemE_S11_mEEEC1ERS13_
_ZN4asio6detail22executor_function_viewC1INS0_7binder2IZ12grabSomeDataRNS_19basic_stream_socketINS_2ip3tcpENS_9execution12any_executorIJNS7_12context_as_tIRNS_17execution_contextEEENS7_6detail8blocking7never_tILi0EEENS7_11prefer_onlyINSE_10possibly_tILi0EEEEENSH_INSD_16outstanding_work9tracked_tILi0EEEEENSH_INSL_11untracked_tILi0EEEEENSH_INSD_12relationship6fork_tILi0EEEEENSH_INSS_14continuation_tILi0EEEEEEEEEEEUlSt10error_codemE_S12_mEEEERT_
_ZN4asio6detail7binder2IZ12grabSomeDataRNS_19basic_stream_socketINS_2ip3tcpENS_9execution12any_executorIJNS5_12context_as_tIRNS_17execution_contextEEENS5_6detail8blocking7never_tILi0EEENS5_11prefer_onlyINSC_10possibly_tILi0EEEEENSF_INSB_16outstanding_work9tracked_tILi0EEEEENSF_INSJ_11untracked_tILi0EEEEENSF_INSB_12relationship6fork_tILi0EEEEENSF_INSQ_14continuation_tILi0EEEEEEEEEEEUlSt10error_codemE_S10_mEC1EOS12_
_ZN4asio6detail17executor_functionC1INS0_7binder2IZ12grabSomeDataRNS_19basic_stream_socketINS_2ip3tcpENS_9execution12any_executorIJNS7_12context_as_tIRNS_17execution_contextEEENS7_6detail8blocking7never_tILi0EEENS7_11prefer_onlyINSE_10possibly_tILi0EEEEENSH_INSD_16outstanding_work9tracked_tILi0EEEEENSH_INSL_11untracked_tILi0EEEEENSH_INSD_12relationship6fork_tILi0EEEEENSH_INSS_14continuation_tILi0EEEEEEEEEEEUlSt10error_codemE_S12_mEESaIvEEET_RKT0_
_ZN4asio6detail16non_const_lvalueINS0_7binder2IZ12grabSomeDataRNS_19basic_stream_socketINS_2ip3tcpENS_9execution12any_executorIJNS6_12context_as_tIRNS_17execution_contextEEENS6_6detail8blocking7never_tILi0EEENS6_11prefer_onlyINSD_10possibly_tILi0EEEEENSG_INSC_16outstanding_work9tracked_tILi0EEEEENSG_INSK_11untracked_tILi0EEEEENSG_INSC_12relationship6fork_tILi0EEEEENSG_INSR_14continuation_tILi0EEEEEEEEEEEUlSt10error_codemE_S11_mEEEC2ERS13_
_ZN4asio6detail22executor_function_viewC2INS0_7binder2IZ12grabSomeDataRNS_19basic_stream_socketINS_2ip3tcpENS_9execution12any_executorIJNS7_12context_as_tIRNS_17execution_contextEEENS7_6detail8blocking7never_tILi0EEENS7_11prefer_onlyINSE_10possibly_tILi0EEEEENSH_INSD_16outstanding_work9tracked_tILi0EEEEENSH_INSL_11untracked_tILi0EEEEENSH_INSD_12relationship6fork_tILi0EEEEENSH_INSS_14continuation_tILi0EEEEEEEEEEEUlSt10error_codemE_S12_mEEEERT_
_ZN4asio6detail22executor_function_view8completeINS0_7binder2IZ12grabSomeDataRNS_19basic_stream_socketINS_2ip3tcpENS_9execution12any_executorIJNS7_12context_as_tIRNS_17execution_contextEEENS7_6detail8blocking7never_tILi0EEENS7_11prefer_onlyINSE_10possibly_tILi0EEEEENSH_INSD_16outstanding_work9tracked_tILi0EEEEENSH_INSL_11untracked_tILi0EEEEENSH_INSD_12relationship6fork_tILi0EEEEENSH_INSS_14continuation_tILi0EEEEEEEEEEEUlSt10error_codemE_S12_mEEEEvPv
_ZN4asio6detail7binder2IZ12grabSomeDataRNS_19basic_stream_socketINS_2ip3tcpENS_9execution12any_executorIJNS5_12context_as_tIRNS_17execution_contextEEENS5_6detail8blocking7never_tILi0EEENS5_11prefer_onlyINSC_10possibly_tILi0EEEEENSF_INSB_16outstanding_work9tracked_tILi0EEEEENSF_INSJ_11untracked_tILi0EEEEENSF_INSB_12relationship6fork_tILi0EEEEENSF_INSQ_14continuation_tILi0EEEEEEEEEEEUlSt10error_codemE_S10_mEC2EOS12_
_ZN4asio6detail17executor_functionC2INS0_7binder2IZ12grabSomeDataRNS_19basic_stream_socketINS_2ip3tcpENS_9execution12any_executorIJNS7_12context_as_tIRNS_17execution_contextEEENS7_6detail8blocking7never_tILi0EEENS7_11prefer_onlyINSE_10possibly_tILi0EEEEENSH_INSD_16outstanding_work9tracked_tILi0EEEEENSH_INSL_11untracked_tILi0EEEEENSH_INSD_12relationship6fork_tILi0EEEEENSH_INSS_14continuation_tILi0EEEEEEEEEEEUlSt10error_codemE_S12_mEESaIvEEET_RKT0_
_ZN4asio6detail17executor_function4implINS0_7binder2IZ12grabSomeDataRNS_19basic_stream_socketINS_2ip3tcpENS_9execution12any_executorIJNS7_12context_as_tIRNS_17execution_contextEEENS7_6detail8blocking7never_tILi0EEENS7_11prefer_onlyINSE_10possibly_tILi0EEEEENSH_INSD_16outstanding_work9tracked_tILi0EEEEENSH_INSL_11untracked_tILi0EEEEENSH_INSD_12relationship6fork_tILi0EEEEENSH_INSS_14continuation_tILi0EEEEEEEEEEEUlSt10error_codemE_S12_mEESaIvEE3ptr8allocateERKS15_
_ZN4asio6detail17executor_function4implINS0_7binder2IZ12grabSomeDataRNS_19basic_stream_socketINS_2ip3tcpENS_9execution12any_executorIJNS7_12context_as_tIRNS_17execution_contextEEENS7_6detail8blocking7never_tILi0EEENS7_11prefer_onlyINSE_10possibly_tILi0EEEEENSH_INSD_16outstanding_work9tracked_tILi0EEEEENSH_INSL_11untracked_tILi0EEEEENSH_INSD_12relationship6fork_tILi0EEEEENSH_INSS_14continuation_tILi0EEEEEEEEEEEUlSt10error_codemE_S12_mEESaIvEEC1IS14_EEOT_RKS15_
_ZN4asio6detail17executor_function4implINS0_7binder2IZ12grabSomeDataRNS_19basic_stream_socketINS_2ip3tcpENS_9execution12any_executorIJNS7_12context_as_tIRNS_17execution_contextEEENS7_6detail8blocking7never_tILi0EEENS7_11prefer_onlyINSE_10possibly_tILi0EEEEENSH_INSD_16outstanding_work9tracked_tILi0EEEEENSH_INSL_11untracked_tILi0EEEEENSH_INSD_12relationship6fork_tILi0EEEEENSH_INSS_14continuation_tILi0EEEEEEEEEEEUlSt10error_codemE_S12_mEESaIvEE3ptrD1Ev
_ZN4asio6detail19recycling_allocatorINS0_17executor_function4implINS0_7binder2IZ12grabSomeDataRNS_19basic_stream_socketINS_2ip3tcpENS_9execution12any_executorIJNS8_12context_as_tIRNS_17execution_contextEEENS8_6detail8blocking7never_tILi0EEENS8_11prefer_onlyINSF_10possibly_tILi0EEEEENSI_INSE_16outstanding_work9tracked_tILi0EEEEENSI_INSM_11untracked_tILi0EEEEENSI_INSE_12relationship6fork_tILi0EEEEENSI_INST_14continuation_tILi0EEEEEEEEEEEUlSt10error_codemE_S13_mEESaIvEEENS0_16thread_info_base21executor_function_tagEEC1IvEERKNS1_IT_S19_EE
_ZN4asio6detail19recycling_allocatorINS0_17executor_function4implINS0_7binder2IZ12grabSomeDataRNS_19basic_stream_socketINS_2ip3tcpENS_9execution12any_executorIJNS8_12context_as_tIRNS_17execution_contextEEENS8_6detail8blocking7never_tILi0EEENS8_11prefer_onlyINSF_10possibly_tILi0EEEEENSI_INSE_16outstanding_work9tracked_tILi0EEEEENSI_INSM_11untracked_tILi0EEEEENSI_INSE_12relationship6fork_tILi0EEEEENSI_INST_14continuation_tILi0EEEEEEEEEEEUlSt10error_codemE_S13_mEESaIvEEENS0_16thread_info_base21executor_function_tagEE8allocateEm
_ZN4asio6detail17executor_function4implINS0_7binder2IZ12grabSomeDataRNS_19basic_stream_socketINS_2ip3tcpENS_9execution12any_executorIJNS7_12context_as_tIRNS_17execution_contextEEENS7_6detail8blocking7never_tILi0EEENS7_11prefer_onlyINSE_10possibly_tILi0EEEEENSH_INSD_16outstanding_work9tracked_tILi0EEEEENSH_INSL_11untracked_tILi0EEEEENSH_INSD_12relationship6fork_tILi0EEEEENSH_INSS_14continuation_tILi0EEEEEEEEEEEUlSt10error_codemE_S12_mEESaIvEE3ptrD2Ev
_ZN4asio6detail17executor_function4implINS0_7binder2IZ12grabSomeDataRNS_19basic_stream_socketINS_2ip3tcpENS_9execution12any_executorIJNS7_12context_as_tIRNS_17execution_contextEEENS7_6detail8blocking7never_tILi0EEENS7_11prefer_onlyINSE_10possibly_tILi0EEEEENSH_INSD_16outstanding_work9tracked_tILi0EEEEENSH_INSL_11untracked_tILi0EEEEENSH_INSD_12relationship6fork_tILi0EEEEENSH_INSS_14continuation_tILi0EEEEEEEEEEEUlSt10error_codemE_S12_mEESaIvEE3ptr5resetEv
_ZN4asio6detail17executor_function4implINS0_7binder2IZ12grabSomeDataRNS_19basic_stream_socketINS_2ip3tcpENS_9execution12any_executorIJNS7_12context_as_tIRNS_17execution_contextEEENS7_6detail8blocking7never_tILi0EEENS7_11prefer_onlyINSE_10possibly_tILi0EEEEENSH_INSD_16outstanding_work9tracked_tILi0EEEEENSH_INSL_11untracked_tILi0EEEEENSH_INSD_12relationship6fork_tILi0EEEEENSH_INSS_14continuation_tILi0EEEEEEEEEEEUlSt10error_codemE_S12_mEESaIvEEC2IS14_EEOT_RKS15_
_ZN4asio6detail17executor_function8completeINS0_7binder2IZ12grabSomeDataRNS_19basic_stream_socketINS_2ip3tcpENS_9execution12any_executorIJNS7_12context_as_tIRNS_17execution_contextEEENS7_6detail8blocking7never_tILi0EEENS7_11prefer_onlyINSE_10possibly_tILi0EEEEENSH_INSD_16outstanding_work9tracked_tILi0EEEEENSH_INSL_11untracked_tILi0EEEEENSH_INSD_12relationship6fork_tILi0EEEEENSH_INSS_14continuation_tILi0EEEEEEEEEEEUlSt10error_codemE_S12_mEESaIvEEEvPNS1_9impl_baseEb
_ZN4asio6detail19recycling_allocatorINS0_17executor_function4implINS0_7binder2IZ12grabSomeDataRNS_19basic_stream_socketINS_2ip3tcpENS_9execution12any_executorIJNS8_12context_as_tIRNS_17execution_contextEEENS8_6detail8blocking7never_tILi0EEENS8_11prefer_onlyINSF_10possibly_tILi0EEEEENSI_INSE_16outstanding_work9tracked_tILi0EEEEENSI_INSM_11untracked_tILi0EEEEENSI_INSE_12relationship6fork_tILi0EEEEENSI_INST_14continuation_tILi0EEEEEEEEEEEUlSt10error_codemE_S13_mEESaIvEEENS0_16thread_info_base21executor_function_tagEEC2IvEERKNS1_IT_S19_EE
_ZN4asio6detail19recycling_allocatorINS0_17executor_function4implINS0_7binder2IZ12grabSomeDataRNS_19basic_stream_socketINS_2ip3tcpENS_9execution12any_executorIJNS8_12context_as_tIRNS_17execution_contextEEENS8_6detail8blocking7never_tILi0EEENS8_11prefer_onlyINSF_10possibly_tILi0EEEEENSI_INSE_16outstanding_work9tracked_tILi0EEEEENSI_INSM_11untracked_tILi0EEEEENSI_INSE_12relationship6fork_tILi0EEEEENSI_INST_14continuation_tILi0EEEEEEEEEEEUlSt10error_codemE_S13_mEESaIvEEENS0_16thread_info_base21executor_function_tagEE10deallocateEPS17_m
_ZN27asio_handler_invoke_helpers6invokeIN4asio6detail7binder2IZ12grabSomeDataRNS1_19basic_stream_socketINS1_2ip3tcpENS1_9execution12any_executorIJNS7_12context_as_tIRNS1_17execution_contextEEENS7_6detail8blocking7never_tILi0EEENS7_11prefer_onlyINSE_10possibly_tILi0EEEEENSH_INSD_16outstanding_work9tracked_tILi0EEEEENSH_INSL_11untracked_tILi0EEEEENSH_INSD_12relationship6fork_tILi0EEEEENSH_INSS_14continuation_tILi0EEEEEEEEEEEUlSt10error_codemE_S12_mEES14_EEvRT_RT0_
_ZSt9addressofIN4asio6detail7binder2IZ12grabSomeDataRNS0_19basic_stream_socketINS0_2ip3tcpENS0_9execution12any_executorIJNS6_12context_as_tIRNS0_17execution_contextEEENS6_6detail8blocking7never_tILi0EEENS6_11prefer_onlyINSD_10possibly_tILi0EEEEENSG_INSC_16outstanding_work9tracked_tILi0EEEEENSG_INSK_11untracked_tILi0EEEEENSG_INSC_12relationship6fork_tILi0EEEEENSG_INSR_14continuation_tILi0EEEEEEEEEEEUlSt10error_codemE_S11_mEEEPT_RS14_
_ZN4asio6detail19asio_handler_invokeINS0_7binder2IZ12grabSomeDataRNS_19basic_stream_socketINS_2ip3tcpENS_9execution12any_executorIJNS6_12context_as_tIRNS_17execution_contextEEENS6_6detail8blocking7never_tILi0EEENS6_11prefer_onlyINSD_10possibly_tILi0EEEEENSG_INSC_16outstanding_work9tracked_tILi0EEEEENSG_INSK_11untracked_tILi0EEEEENSG_INSC_12relationship6fork_tILi0EEEEENSG_INSR_14continuation_tILi0EEEEEEEEEEEUlSt10error_codemE_S11_mEES12_S11_mEEvRT_PNS2_IT0_T1_T2_EE
_ZSt11__addressofIN4asio6detail7binder2IZ12grabSomeDataRNS0_19basic_stream_socketINS0_2ip3tcpENS0_9execution12any_executorIJNS6_12context_as_tIRNS0_17execution_contextEEENS6_6detail8blocking7never_tILi0EEENS6_11prefer_onlyINSD_10possibly_tILi0EEEEENSG_INSC_16outstanding_work9tracked_tILi0EEEEENSG_INSK_11untracked_tILi0EEEEENSG_INSC_12relationship6fork_tILi0EEEEENSG_INSR_14continuation_tILi0EEEEEEEEEEEUlSt10error_codemE_S11_mEEEPT_RS14_
_ZTINSt6thread11_State_implINS_8_InvokerISt5tupleIJZ4mainEUlvE_EEEEEE
_ZNSt6thread11_State_implINS_8_InvokerISt5tupleIJZ4mainEUlvE_EEEEED1Ev
_ZNSt6thread11_State_implINS_8_InvokerISt5tupleIJZ4mainEUlvE_EEEEED0Ev
_ZNSt6thread11_State_implINS_8_InvokerISt5tupleIJZ4mainEUlvE_EEEEE6_M_runEv
_ZNSt6thread11_State_implINS_8_InvokerISt5tupleIJZ4mainEUlvE_EEEEED2Ev
_ZTSNSt6thread11_State_implINS_8_InvokerISt5tupleIJZ4mainEUlvE_EEEEEE
_Z41__static_initialization_and_destruction_0ii
_ZN4asio6detail20execute_member_traitINS_9execution12any_executorIJNS2_12context_as_tIRNS_17execution_contextEEENS2_6detail8blocking7never_tILi0EEENS2_11prefer_onlyINS9_10possibly_tILi0EEEEENSC_INS8_16outstanding_work9tracked_tILi0EEEEENSC_INSG_11untracked_tILi0EEEEENSC_INS8_12relationship6fork_tILi0EEEEENSC_INSN_14continuation_tILi0EEEEEEEENS0_7binder2IZ12grabSomeDataRNS_19basic_stream_socketINS_2ip3tcpESU_EEEUlSt10error_codemE_S11_mEEvE8is_validE
_ZN4asio6detail20execute_member_traitINS_9execution12any_executorIJNS2_12context_as_tIRNS_17execution_contextEEENS2_6detail8blocking7never_tILi0EEENS2_11prefer_onlyINS9_10possibly_tILi0EEEEENSC_INS8_16outstanding_work9tracked_tILi0EEEEENSC_INSG_11untracked_tILi0EEEEENSC_INS8_12relationship6fork_tILi0EEEEENSC_INSN_14continuation_tILi0EEEEEEEENS0_7binder2IZ12grabSomeDataRNS_19basic_stream_socketINS_2ip3tcpESU_EEEUlSt10error_codemE_S11_mEEvE11is_noexceptE
_ZN4asio6detail21set_done_member_traitINS_9execution6detail11as_receiverINS0_7binder2IZ12grabSomeDataRNS_19basic_stream_socketINS_2ip3tcpENS2_12any_executorIJNS2_12context_as_tIRNS_17execution_contextEEENS3_8blocking7never_tILi0EEENS2_11prefer_onlyINSE_10possibly_tILi0EEEEENSH_INS3_16outstanding_work9tracked_tILi0EEEEENSH_INSL_11untracked_tILi0EEEEENSH_INS3_12relationship6fork_tILi0EEEEENSH_INSS_14continuation_tILi0EEEEEEEEEEEUlSt10error_codemE_S12_mEESZ_EEvE8is_validE
_ZN4asio6detail21set_done_member_traitINS_9execution6detail11as_receiverINS0_7binder2IZ12grabSomeDataRNS_19basic_stream_socketINS_2ip3tcpENS2_12any_executorIJNS2_12context_as_tIRNS_17execution_contextEEENS3_8blocking7never_tILi0EEENS2_11prefer_onlyINSE_10possibly_tILi0EEEEENSH_INS3_16outstanding_work9tracked_tILi0EEEEENSH_INSL_11untracked_tILi0EEEEENSH_INS3_12relationship6fork_tILi0EEEEENSH_INSS_14continuation_tILi0EEEEEEEEEEEUlSt10error_codemE_S12_mEESZ_EEvE11is_noexceptE
_ZN26asio_execution_set_done_fn11call_traitsIN4asio9execution6detail11as_receiverINS1_6detail7binder2IZ12grabSomeDataRNS1_19basic_stream_socketINS1_2ip3tcpENS2_12any_executorIJNS2_12context_as_tIRNS1_17execution_contextEEENS3_8blocking7never_tILi0EEENS2_11prefer_onlyINSF_10possibly_tILi0EEEEENSI_INS3_16outstanding_work9tracked_tILi0EEEEENSI_INSM_11untracked_tILi0EEEEENSI_INS3_12relationship6fork_tILi0EEEEENSI_INST_14continuation_tILi0EEEEEEEEEEEUlSt10error_codemE_S13_mEES10_EEvE8overloadE
_ZN4asio6detail22set_error_member_traitINS_9execution6detail11as_receiverINS0_7binder2IZ12grabSomeDataRNS_19basic_stream_socketINS_2ip3tcpENS2_12any_executorIJNS2_12context_as_tIRNS_17execution_contextEEENS3_8blocking7never_tILi0EEENS2_11prefer_onlyINSE_10possibly_tILi0EEEEENSH_INS3_16outstanding_work9tracked_tILi0EEEEENSH_INSL_11untracked_tILi0EEEEENSH_INS3_12relationship6fork_tILi0EEEEENSH_INSS_14continuation_tILi0EEEEEEEEEEEUlSt10error_codemE_S12_mEESZ_EENSt15__exception_ptr13exception_ptrEvE8is_validE
_ZN4asio6detail22set_error_member_traitINS_9execution6detail11as_receiverINS0_7binder2IZ12grabSomeDataRNS_19basic_stream_socketINS_2ip3tcpENS2_12any_executorIJNS2_12context_as_tIRNS_17execution_contextEEENS3_8blocking7never_tILi0EEENS2_11prefer_onlyINSE_10possibly_tILi0EEEEENSH_INS3_16outstanding_work9tracked_tILi0EEEEENSH_INSL_11untracked_tILi0EEEEENSH_INS3_12relationship6fork_tILi0EEEEENSH_INSS_14continuation_tILi0EEEEEEEEEEEUlSt10error_codemE_S12_mEESZ_EENSt15__exception_ptr13exception_ptrEvE11is_noexceptE
_ZN27asio_execution_set_error_fn11call_traitsIN4asio9execution6detail11as_receiverINS1_6detail7binder2IZ12grabSomeDataRNS1_19basic_stream_socketINS1_2ip3tcpENS2_12any_executorIJNS2_12context_as_tIRNS1_17execution_contextEEENS3_8blocking7never_tILi0EEENS2_11prefer_onlyINSF_10possibly_tILi0EEEEENSI_INS3_16outstanding_work9tracked_tILi0EEEEENSI_INSM_11untracked_tILi0EEEEENSI_INS3_12relationship6fork_tILi0EEEEENSI_INST_14continuation_tILi0EEEEEEEEEEEUlSt10error_codemE_S13_mEES10_EEFvNSt15__exception_ptr13exception_ptrEEvE8overloadE
_ZN25asio_execution_connect_fn11call_traitsIN4asio9execution12any_executorIJNS2_12context_as_tIRNS1_17execution_contextEEENS2_6detail8blocking7never_tILi0EEENS2_11prefer_onlyINS9_10possibly_tILi0EEEEENSC_INS8_16outstanding_work9tracked_tILi0EEEEENSC_INSG_11untracked_tILi0EEEEENSC_INS8_12relationship6fork_tILi0EEEEENSC_INSN_14continuation_tILi0EEEEEEEEFvNS8_11as_receiverINS1_6detail7binder2IZ12grabSomeDataRNS1_19basic_stream_socketINS1_2ip3tcpESU_EEEUlSt10error_codemE_S13_mEESU_EEEvE8overloadE
_ZN25asio_execution_execute_fn11call_traitsIN4asio9execution12any_executorIJNS2_12context_as_tIRNS1_17execution_contextEEENS2_6detail8blocking7never_tILi0EEENS2_11prefer_onlyINS9_10possibly_tILi0EEEEENSC_INS8_16outstanding_work9tracked_tILi0EEEEENSC_INSG_11untracked_tILi0EEEEENSC_INS8_12relationship6fork_tILi0EEEEENSC_INSN_14continuation_tILi0EEEEEEEEFvNS1_6detail7binder2IZ12grabSomeDataRNS1_19basic_stream_socketINS1_2ip3tcpESU_EEEUlSt10error_codemE_S12_mEEEvE8overloadE
_ZNSt6thread8_InvokerISt5tupleIJZ4mainEUlvE_EEEclEv
_ZNSt6thread8_InvokerISt5tupleIJZ4mainEUlvE_EEE9_M_invokeIJLm0EEEEvSt12_Index_tupleIJXspT_EEE
_ZSt4moveIRSt5tupleIJZ4mainEUlvE_EEEONSt16remove_referenceIT_E4typeEOS5_
_ZSt3getILm0EJZ4mainEUlvE_EEONSt13tuple_elementIXT_ESt5tupleIJDpT0_EEE4typeEOS5_
_ZSt8__invokeIZ4mainEUlvE_JEENSt15__invoke_resultIT_JDpT0_EE4typeEOS2_DpOS3_
_ZSt12__get_helperILm0EZ4mainEUlvE_JEERT0_RSt11_Tuple_implIXT_EJS1_DpT1_EE
_ZSt13__invoke_implIvZ4mainEUlvE_JEET_St14__invoke_otherOT0_DpOT1_
_ZNSt11_Tuple_implILm0EJZ4mainEUlvE_EE7_M_headERS1_
_ZNSt10_Head_baseILm0EZ4mainEUlvE_Lb0EE7_M_headERS1_
_GLOBAL__sub_I_vBuffer
__FRAME_END__
__GNU_EH_FRAME_HDR
_DYNAMIC
_GLOBAL_OFFSET_TABLE_
_ZTSN4asio6detail9schedulerE
_ZN4asio6detail13epoll_reactor16descriptor_stateC2Eb
_ZN4asio9execution6detail10blocking_tILi0EEC2ENS1_8blocking7never_tILi0EEE
pthread_cond_signal@GLIBC_2.3.2
_ZN4asio9execution6detail17any_executor_base15require_fn_implINS0_12any_executorIJNS0_12context_as_tIRNS_17execution_contextEEENS1_8blocking7never_tILi0EEENS0_11prefer_onlyINS9_10possibly_tILi0EEEEENSC_INS1_16outstanding_work9tracked_tILi0EEEEENSC_INSG_11untracked_tILi0EEEEENSC_INS1_12relationship6fork_tILi0EEEEENSC_INSN_14continuation_tILi0EEEEEEEEvST_EET_PKvSX_PNSt9enable_ifIXsrSt7is_sameIT0_vE5valueEvE4typeE
_Z12grabSomeDataRN4asio19basic_stream_socketINS_2ip3tcpENS_9execution12any_executorIJNS3_12context_as_tIRNS_17execution_contextEEENS3_6detail8blocking7never_tILi0EEENS3_11prefer_onlyINSA_10possibly_tILi0EEEEENSD_INS9_16outstanding_work9tracked_tILi0EEEEENSD_INSH_11untracked_tILi0EEEEENSD_INS9_12relationship6fork_tILi0EEEEENSD_INSO_14continuation_tILi0EEEEEEEEEE
_ZN4asio9execution6detail17any_executor_base9prefer_fnINS0_12any_executorIJNS0_12context_as_tIRNS_17execution_contextEEENS1_8blocking7never_tILi0EEENS0_11prefer_onlyINS9_10possibly_tILi0EEEEENSC_INS1_16outstanding_work9tracked_tILi0EEEEENSC_INSG_11untracked_tILi0EEEEENSC_INS1_12relationship6fork_tILi0EEEEENSC_INSN_14continuation_tILi0EEEEEEEENS_10io_context19basic_executor_typeISaIvELj0EEESQ_EET_PKvS11_
_ZN4asio6detail27conditionally_enabled_mutex4lockEv
_ZNK4asio6detail8op_queueINS0_19scheduler_operationEE11is_enqueuedEPS2_
_ZN4asio6detail15op_queue_access4nextINS0_10reactor_opES3_EEvRPT_PT0_
_ZN4asio6detail15op_queue_access7destroyINS0_19scheduler_operationEEEvPT_
_ZNSt6thread6_StateC2Ev
_ZN4asio6detail21scheduler_thread_infoC1Ev
_ZN4asio6detail10socket_ops10getsockoptEihiiPvPmRSt10error_code
_ZN4asio9execution6detail17any_executor_base15require_fn_implINS0_12any_executorIJNS0_12context_as_tIRNS_17execution_contextEEENS1_8blocking7never_tILi0EEENS0_11prefer_onlyINS9_10possibly_tILi0EEEEENSC_INS1_16outstanding_work9tracked_tILi0EEEEENSC_INSG_11untracked_tILi0EEEEENSC_INS1_12relationship6fork_tILi0EEEEENSC_INSN_14continuation_tILi0EEEEEEEEvSF_EET_PKvSX_PNSt9enable_ifIXsrSt7is_sameIT0_vE5valueEvE4typeE
_ZN4asio6detail12posix_thread4funcINS0_9scheduler15thread_functionEED0Ev
__errno_location@GLIBC_2.2.5
_ZNKSt6chrono8durationIlSt5ratioILl1ELl1000EEE5countEv
_ZN4asio9execution6detail17any_executor_base13query_fn_implIvNS0_12context_as_tIRNS_17execution_contextEEEEEvPvPKvSA_PNSt9enable_ifIXsrSt7is_sameIT_vE5valueEvE4typeE
_ZStanSt12memory_orderSt23__memory_order_modifier
_ZN4asio6detail19recycling_allocatorINS0_11executor_opINS0_17executor_functionESaIvENS0_19scheduler_operationEEENS0_16thread_info_base11default_tagEE10deallocateEPS6_m
_ZNSt5arrayIhLm16EE4dataEv
_ZN4asio6detail11posix_event27maybe_unlock_and_signal_oneINS0_27conditionally_enabled_mutex11scoped_lockEEEbRT_
_ZTSN4asio2ip16bad_address_castE
_ZN4asio5error15make_error_codeENS0_11misc_errorsE
_ZN4asio6detail8op_queueINS0_19scheduler_operationEE4pushEPS2_
_ZN4asio5error17get_misc_categoryEv
_ZN4asio6detail10scoped_ptrINS0_9schedulerEE3getEv
_ZN4asio6detail16thread_info_baseC1Ev
htons@GLIBC_2.2.5
_ZN4asio6detail10socket_ops12call_connectIjEEiM6msghdrT_iPK8sockaddrm
_ZN4asio2ip16bad_address_castC2Ev
_ZStneRKSt10error_codeS1_
_ZN4asio6detail11object_poolINS0_13epoll_reactor16descriptor_stateEE5firstEv
_ZN4asio6detail19recycling_allocatorINS0_11executor_opINS0_22executor_function_viewESaIvENS0_19scheduler_operationEEENS0_16thread_info_base11default_tagEE10deallocateEPS6_m
_ZTVN4asio22service_already_existsE
_ZN4asio6detail13socket_holderD2Ev
pause@GLIBC_2.2.5
_ZN27asio_handler_invoke_helpers6invokeIN4asio6detail17executor_functionES3_EEvRT_RT0_
_ZN4asio6detail12posix_thread9func_baseD0Ev
_ZNSt16allocator_traitsISaINSt7__cxx1112basic_stringIcSt11char_traitsIcESaIcEEEEE10deallocateERS6_PS5_m
_ZSt19__iterator_categoryIPcENSt15iterator_traitsIT_E17iterator_categoryERKS2_
_ZZN4asio9execution6detail17any_executor_base16object_fns_tableINS_10io_context19basic_executor_typeISaIvELj4EEEEEPKNS2_10object_fnsEPNSt9enable_ifIXaantsrSt7is_sameIT_vE5valuentsrSC_ISD_St10shared_ptrIvEE5valueEvE4typeEE3fns
_ZN4asio9execution6detail20prefer_only_propertyINS1_16outstanding_work9tracked_tILi0EEEvEC1ERKS5_
_ZN4asio6detail13epoll_reactorD0Ev
_ZN4asio6detail16service_registryD2Ev
_ZZN9__gnu_cxx6__stoaIlicJiEEET0_PFT_PKT1_PPS3_DpT2_EPKcS5_PmS9_EN11_Save_errnoD2Ev
_ZNSt15__exception_ptr13exception_ptr9_M_addrefEv@CXXABI_1.3.13
_ZNSt11char_traitsIcE2ltERKcS2_
_ZN26asio_execution_set_done_fn15static_instanceINS_4implEE8instanceE
_ZNSt12_Vector_baseINSt7__cxx1112basic_stringIcSt11char_traitsIcESaIcEEESaIS5_EEC2ERKS6_
_ZN4asio9execution6detail17any_executor_base10require_fnINS0_12any_executorIJNS0_12context_as_tIRNS_17execution_contextEEENS1_8blocking7never_tILi0EEENS0_11prefer_onlyINS9_10possibly_tILi0EEEEENSC_INS1_16outstanding_work9tracked_tILi0EEEEENSC_INSG_11untracked_tILi0EEEEENSC_INS1_12relationship6fork_tILi0EEEEENSC_INSN_14continuation_tILi0EEEEEEEENS_10io_context19basic_executor_typeISaIvELj4EEESF_EET_PKvS11_
_ZN4asio9execution6detail17any_executor_baseC1INS_10io_context19basic_executor_typeISaIvELj4EEEEET_St17integral_constantIbLb0EE
_ZN4asio6detail23reactive_socket_serviceINS_2ip3tcpEE19implementation_typeC2Ev
_ZN4asio6detail11executor_opINS0_17executor_functionESaIvENS0_19scheduler_operationEE11do_completeEPvPS4_RKSt10error_codem
_ZN4asio9execution6detail17any_executor_base10require_fnINS0_12any_executorIJNS0_12context_as_tIRNS_17execution_contextEEENS1_8blocking7never_tILi0EEENS0_11prefer_onlyINS9_10possibly_tILi0EEEEENSC_INS1_16outstanding_work9tracked_tILi0EEEEENSC_INSG_11untracked_tILi0EEEEENSC_INS1_12relationship6fork_tILi0EEEEENSC_INSN_14continuation_tILi0EEEEEEEEvSM_EET_PKvSX_
_ZNSt6vectorIcSaIcEE4dataEv
_ZN4asio6detail11object_poolINS0_13epoll_reactor16descriptor_stateEE5allocIbEEPS3_T_
_ZNSt10error_codeC1Ev
_ZN4asio21invalid_service_ownerC1Ev
_ZNK4asio9execution6detail17any_executor_base11target_typeEv
_ZN4asio9execution6detail17any_executor_base15require_fn_implINS0_12any_executorIJNS0_12context_as_tIRNS_17execution_contextEEENS1_8blocking7never_tILi0EEENS0_11prefer_onlyINS9_10possibly_tILi0EEEEENSC_INS1_16outstanding_work9tracked_tILi0EEEEENSC_INSG_11untracked_tILi0EEEEENSC_INS1_12relationship6fork_tILi0EEEEENSC_INSN_14continuation_tILi0EEEEEEEENS_10io_context19basic_executor_typeISaIvELj0EEEST_EET_PKvS11_z
_ZN4asio6detail10scoped_ptrINS0_9schedulerEED1Ev
_ZN4asio6detail30execution_context_service_baseINS0_13epoll_reactorEED0Ev
_ZN4asio6detail11posix_mutexC2Ev
_ZNK13asio_query_fn4implclIRKN4asio10io_context19basic_executor_typeISaIvELj4EEERKNS2_9execution11prefer_onlyINS9_6detail12relationship14continuation_tILi0EEEEEEENSt9enable_ifIXeqsrNS_11call_traitsIT_FvT0_EvEE8overloadLNS_13overload_typeE2EENSN_11result_typeEE4typeEOSK_OSL_
_ZN4asio6detail9schedulerD2Ev
_ZN4asio6detail26eventfd_select_interrupter16open_descriptorsEv
_ZN4asio9execution6detail17any_executor_base10require_fnINS0_12any_executorIJNS0_12context_as_tIRNS_17execution_contextEEENS1_8blocking7never_tILi0EEENS0_11prefer_onlyINS9_10possibly_tILi0EEEEENSC_INS1_16outstanding_work9tracked_tILi0EEEEENSC_INSG_11untracked_tILi0EEEEENSC_INS1_12relationship6fork_tILi0EEEEENSC_INSN_14continuation_tILi0EEEEEEEEvST_EET_PKvSX_
_ZNK14asio_prefer_fn4implclIRKN4asio10io_context19basic_executor_typeISaIvELj4EEERKNS2_9execution6detail8blocking7never_tILi0EEEEENSt9enable_ifIXeqsrNS_11call_traitsIT_FvT0_EvEE8overloadLNS_13overload_typeE1EENSL_11result_typeEE4typeEOSI_OSJ_
_ZNKSt16initializer_listINSt7__cxx1112basic_stringIcSt11char_traitsIcESaIcEEEE4sizeEv
_ZN4asio6detail10call_stackINS0_14thread_contextENS0_16thread_info_baseEE7contextC1EPS2_RS3_
_ZN4asio9execution6detail17any_executor_base14prefer_fn_implINS0_12any_executorIJNS0_12context_as_tIRNS_17execution_contextEEENS1_8blocking7never_tILi0EEENS0_11prefer_onlyINS9_10possibly_tILi0EEEEENSC_INS1_16outstanding_work9tracked_tILi0EEEEENSC_INSG_11untracked_tILi0EEEEENSC_INS1_12relationship6fork_tILi0EEEEENSC_INSN_14continuation_tILi0EEEEEEEEvSM_EET_PKvSX_PNSt9enable_ifIXsrSt7is_sameIT0_vE5valueEvE4typeE
_ZN4asio6detail16service_registry11use_serviceINS0_23reactive_socket_serviceINS_2ip3tcpEEEEERT_RNS_10io_contextE
pthread_condattr_init@GLIBC_2.2.5
_ZTINSt6thread6_StateE@GLIBCXX_3.4.22
_ZN4asio6detail30execution_context_service_baseINS0_9schedulerEED0Ev
_ZN4asio6detail10service_idINS0_23reactive_socket_serviceINS_2ip3tcpEEEEC2Ev
_ZN27asio_execution_set_value_fn15static_instanceINS_4implEE8instanceE
_ZN4asio6detail27conditionally_enabled_mutex6unlockEv
_ZSt11__addressofIcEPT_RS0_
_ZN4asio6detail28reactive_socket_service_base8start_opERNS1_24base_implementation_typeEiPNS0_10reactor_opEbbb
_ZN4asio10io_context19basic_executor_typeISaIvELj0EEC1EOS3_
_ZN4asio17execution_context7serviceD2Ev
_ZNK4asio10io_context19basic_executor_typeISaIvELj4EE7requireENS_9execution6detail12relationship6fork_tILi0EEE
_ZN4asio6detail26eventfd_select_interrupter9interruptEv
_ZNSt6chronoltIlSt5ratioILl1ELl1000EElS2_EEbRKNS_8durationIT_T0_EERKNS3_IT1_T2_EE
_ZNSaIcED2Ev@GLIBCXX_3.4
_ZN4asio6detail23reactive_socket_serviceINS_2ip3tcpEED1Ev
_ZNSt12_Destroy_auxILb0EE9__destroyIPNSt7__cxx1112basic_stringIcSt11char_traitsIcESaIcEEEEEvT_S9_
_ZN4asio9execution6detail17any_executor_base14prefer_fn_implINS0_12any_executorIJNS0_12context_as_tIRNS_17execution_contextEEENS1_8blocking7never_tILi0EEENS0_11prefer_onlyINS9_10possibly_tILi0EEEEENSC_INS1_16outstanding_work9tracked_tILi0EEEEENSC_INSG_11untracked_tILi0EEEEENSC_INS1_12relationship6fork_tILi0EEEEENSC_INSN_14continuation_tILi0EEEEEEEENS_10io_context19basic_executor_typeISaIvELj0EEESQ_EET_PKvS11_PNSt9enable_ifIXaantsrSt7is_sameIT0_vE5valuesrT1_13is_preferableEvE4typeE
_ZN4asio6detail10socket_ops21host_to_network_shortEt
_ZSt10__distanceIPKcENSt15iterator_traitsIT_E15difference_typeES3_S3_St26random_access_iterator_tag
_ZNSt12system_errorC2ESt10error_codePKc
_ZNK4asio2ip6detail8endpoint4dataEv
_ZN4asio9execution6detail17any_executor_base14prefer_fn_implINS0_12any_executorIJNS0_12context_as_tIRNS_17execution_contextEEENS1_8blocking7never_tILi0EEENS0_11prefer_onlyINS9_10possibly_tILi0EEEEENSC_INS1_16outstanding_work9tracked_tILi0EEEEENSC_INSG_11untracked_tILi0EEEEENSC_INS1_12relationship6fork_tILi0EEEEENSC_INSN_14continuation_tILi0EEEEEEEENS_10io_context19basic_executor_typeISaIvELj4EEESF_EET_PKvS11_PNSt9enable_ifIXaantsrSt7is_sameIT0_vE5valuesrT1_13is_preferableEvE4typeE
_ZNSt10_Head_baseILm0EPNSt6thread6_StateELb0EEC2Ev
_ZN4asio9execution6detail17any_executor_base10require_fnINS0_12any_executorIJNS0_12context_as_tIRNS_17execution_contextEEENS1_8blocking7never_tILi0EEENS0_11prefer_onlyINS9_10possibly_tILi0EEEEENSC_INS1_16outstanding_work9tracked_tILi0EEEEENSC_INSG_11untracked_tILi0EEEEENSC_INS1_12relationship6fork_tILi0EEEEENSC_INSN_14continuation_tILi0EEEEEEEENS_10io_context19basic_executor_typeISaIvELj4EEESJ_EET_PKvS11_
_ZN4asio9execution6detail17any_executor_base10require_fnINS0_12any_executorIJNS0_12context_as_tIRNS_17execution_contextEEENS1_8blocking7never_tILi0EEENS0_11prefer_onlyINS9_10possibly_tILi0EEEEENSC_INS1_16outstanding_work9tracked_tILi0EEEEENSC_INSG_11untracked_tILi0EEEEENSC_INS1_12relationship6fork_tILi0EEEEENSC_INSN_14continuation_tILi0EEEEEEEENS_10io_context19basic_executor_typeISaIvELj4EEESB_EET_PKvS11_
_ZNSt12_Vector_baseINSt7__cxx1112basic_stringIcSt11char_traitsIcESaIcEEESaIS5_EE12_Vector_implC1ERKS6_
_ZNK15asio_require_fn4implclIRKN4asio10io_context19basic_executor_typeISaIvELj0EEERKNS2_9execution6detail8blocking7never_tILi0EEEEENSt9enable_ifIXeqsrNS_11call_traitsIT_FvT0_EvEE8overloadLNS_13overload_typeE1EENSL_11result_typeEE4typeEOSI_OSJ_
_ZN4asio6detail13epoll_reactor9init_taskEv
_ZN4asio6detail11scoped_lockINS0_11posix_mutexEED1Ev
_ZNSt13__atomic_baseIlEC2El
_ZNSt12_Vector_baseINSt7__cxx1112basic_stringIcSt11char_traitsIcESaIcEEESaIS5_EEC1ERKS6_
_ZN4asio2ip7addressC2ERKNS0_10address_v4E
_ZNKSt6vectorIcSaIcEE4sizeEv
_ZN4asio6detail17executor_functionclEv
_ZN4asio6detail11scoped_lockINS0_11posix_mutexEEC2ERS2_
_ZN4asio6detail27conditionally_enabled_mutex11scoped_lock6unlockEv
_ZN4asio6detail10socket_ops12poll_connectEiiRSt10error_code
_ZN4asio9execution6detail17any_executor_base9prefer_fnINS0_12any_executorIJNS0_12context_as_tIRNS_17execution_contextEEENS1_8blocking7never_tILi0EEENS0_11prefer_onlyINS9_10possibly_tILi0EEEEENSC_INS1_16outstanding_work9tracked_tILi0EEEEENSC_INSG_11untracked_tILi0EEEEENSC_INS1_12relationship6fork_tILi0EEEEENSC_INSN_14continuation_tILi0EEEEEEEENS_10io_context19basic_executor_typeISaIvELj0EEES8_EET_PKvS11_
_ZN4asio6detail11executor_opINS0_22executor_function_viewESaIvENS0_19scheduler_operationEE3ptr5resetEv
_ZNK14asio_prefer_fn4implclIRKN4asio10io_context19basic_executor_typeISaIvELj0EEERKNS2_9execution6detail12relationship14continuation_tILi0EEEEENSt9enable_ifIXeqsrNS_11call_traitsIT_FvT0_EvEE8overloadLNS_13overload_typeE1EENSL_11result_typeEE4typeEOSI_OSJ_
_ZN4asio9execution12any_executorIJNS0_12context_as_tIRNS_17execution_contextEEENS0_6detail8blocking7never_tILi0EEENS0_11prefer_onlyINS7_10possibly_tILi0EEEEENSA_INS6_16outstanding_work9tracked_tILi0EEEEENSA_INSE_11untracked_tILi0EEEEENSA_INS6_12relationship6fork_tILi0EEEEENSA_INSL_14continuation_tILi0EEEEEEEC1INS_10io_context19basic_executor_typeISaIvELj0EEEEET_PNSt9enable_ifIXsrNSt11conditionalIXaantsrSt7is_sameISY_SS_E5valuentsrSt10is_base_ofINS6_17any_executor_baseESY_E5valueENS6_24is_valid_target_executorISY_FvS5_S9_SD_SH_SK_SO_SR_EEESt17integral_constantIbLb0EEE4typeE5valueEvE4typeE
_ZSt11__addressofIKSaIvEEPT_RS2_
_ZN4asio6detail19recycling_allocatorINS0_11executor_opINS0_22executor_function_viewESaIvENS0_19scheduler_operationEEENS0_16thread_info_base11default_tagEEC1IvEERKNS1_IT_S8_EE
_ZNSaINSt7__cxx1112basic_stringIcSt11char_traitsIcESaIcEEEED2Ev
_ZN4asio6detail11object_poolINS0_13epoll_reactor16descriptor_stateEED1Ev
_ZN4asio17execution_contextD1Ev
_ZN4asio6detail16service_registryD1Ev
_ZN4asio6detail14io_object_implINS0_23reactive_socket_serviceINS_2ip3tcpEEENS_9execution12any_executorIJNS6_12context_as_tIRNS_17execution_contextEEENS6_6detail8blocking7never_tILi0EEENS6_11prefer_onlyINSD_10possibly_tILi0EEEEENSG_INSC_16outstanding_work9tracked_tILi0EEEEENSG_INSK_11untracked_tILi0EEEEENSG_INSC_12relationship6fork_tILi0EEEEENSG_INSR_14continuation_tILi0EEEEEEEEEC1INS_10io_contextEEERT_PNSt9enable_ifIXsrSt14is_convertibleIS13_SA_E5valueEvE4typeE
_ZN4asio11use_serviceINS_6detail23reactive_socket_serviceINS_2ip3tcpEEEEERT_RNS_10io_contextE
_ZN4asio19basic_stream_socketINS_2ip3tcpENS_9execution12any_executorIJNS3_12context_as_tIRNS_17execution_contextEEENS3_6detail8blocking7never_tILi0EEENS3_11prefer_onlyINSA_10possibly_tILi0EEEEENSD_INS9_16outstanding_work9tracked_tILi0EEEEENSD_INSH_11untracked_tILi0EEEEENSD_INS9_12relationship6fork_tILi0EEEEENSD_INSO_14continuation_tILi0EEEEEEEEED2Ev
_ZSteqIvvEbRKSaIT_ERKSaIT0_E
_ZNK4asio2ip14basic_endpointINS0_3tcpEE8protocolEv
_ZN4asio6detail11object_poolINS0_13epoll_reactor16descriptor_stateEE4freeEPS3_
_ZN4asio9execution6detail17any_executor_base10require_fnINS0_12any_executorIJNS0_12context_as_tIRNS_17execution_contextEEENS1_8blocking7never_tILi0EEENS0_11prefer_onlyINS9_10possibly_tILi0EEEEENSC_INS1_16outstanding_work9tracked_tILi0EEEEENSC_INSG_11untracked_tILi0EEEEENSC_INS1_12relationship6fork_tILi0EEEEENSC_INSN_14continuation_tILi0EEEEEEEEvSJ_EET_PKvSX_
_ZN4asio6detail10socket_ops5closeEiRhbRSt10error_code
if_nametoindex@GLIBC_2.2.5
_ZN4asio5error6detail17addrinfo_categoryD0Ev
_ZN4asio17execution_context7service11notify_forkENS0_10fork_eventE
_ZN4asio11use_serviceINS_6detail9schedulerEEERT_RNS_17execution_contextE
_ZSt12__get_helperILm1ESt14default_deleteINSt6thread6_StateEEJEERT0_RSt11_Tuple_implIXT_EJS4_DpT1_EE
_ZN4asio6detail18static_query_traitINS_10io_context19basic_executor_typeISaIvELj4EEENS_9execution11prefer_onlyINS6_6detail16outstanding_work11untracked_tILi0EEEEEvE5valueEv
_ZN23asio_require_concept_fn15static_instanceINS_4implEE8instanceE
_ZN4asio6detail10service_idINS0_14strand_serviceEED2Ev
_ZNSt12_Vector_baseINSt7__cxx1112basic_stringIcSt11char_traitsIcESaIcEEESaIS5_EE17_Vector_impl_dataC1Ev
_ZNSt6thread6_StateC1Ev
_ZN4asio6detail11posix_mutex6unlockEv
_ZNK4asio2ip10address_v47to_uintEv
_ZGVN4asio6detail10call_stackINS0_14thread_contextENS0_16thread_info_baseEE4top_E
_ZNSt12_Vector_baseIcSaIcEE12_Vector_implC2ERKS0_
_ZNSaINSt7__cxx1112basic_stringIcSt11char_traitsIcESaIcEEEEC2Ev
_ZN4asio9execution6detail17any_executor_base8query_fnIvNS0_11prefer_onlyINS1_16outstanding_work9tracked_tILi0EEEEEEEvPvPKvSB_
_ZN4asio6detail13socket_holderD1Ev
_ZNSt6vectorINSt7__cxx1112basic_stringIcSt11char_traitsIcESaIcEEESaIS5_EEC2ESt16initializer_listIS5_ERKS6_
_ZN4asio6detail17executor_functionC2EOS1_
_ZNK13asio_query_fn4implclIRKN4asio10io_context19basic_executor_typeISaIvELj4EEERKNS2_9execution11prefer_onlyINS9_6detail8blocking10possibly_tILi0EEEEEEENSt9enable_ifIXeqsrNS_11call_traitsIT_FvT0_EvEE8overloadLNS_13overload_typeE2EENSN_11result_typeEE4typeEOSK_OSL_
_ZNKSt6thread8joinableEv
_ZN4asio9execution6detail17any_executor_base17query_fn_non_voidINS_10io_context19basic_executor_typeISaIvELj4EEENS0_11prefer_onlyINS1_12relationship14continuation_tILi0EEEEEEEvPvPKvSF_PNSt9enable_ifIXaaaaaasrNS_9can_queryIRKT_RKT0_EE5valuentsrSt7is_sameINSL_29polymorphic_query_result_typeEvE5valuentsrSt12is_referenceISQ_E5valuentsrSt9is_scalarISQ_E5valueEvE4typeE
_edata
_ZN4asio6detail13epoll_reactor21deregister_descriptorEiRPNS1_16descriptor_stateEb
_ZN9__gnu_cxx13new_allocatorIcE8allocateEmPKv
_ZN4asio2ip10address_v4C2ERKS1_
socket@GLIBC_2.2.5
_ZNSt7__cxx1112basic_stringIcSt11char_traitsIcESaIcEE6insertEmPKc@GLIBCXX_3.4.21
_ZNSt15__uniq_ptr_implINSt6thread6_StateESt14default_deleteIS1_EE10_M_deleterEv
_ZN4asio2ip10address_v6C1ERKS1_
_ZN4asio10io_context19basic_executor_typeISaIvELj0EEC1ERKS3_
strerror_r@GLIBC_2.2.5
_ZN4asio6detail9scheduler12work_startedEv
_ZN4asio9execution6detail17any_executor_base8query_fnINS_10io_context19basic_executor_typeISaIvELj4EEENS0_11prefer_onlyINS1_12relationship14continuation_tILi0EEEEEEEvPvPKvSF_
_ZSt11__addressofIN4asio6detail22executor_function_viewEEPT_RS3_
_ZNK13asio_query_fn4implclIRKN4asio10io_context19basic_executor_typeISaIvELj0EEERKNS2_9execution12context_as_tIRNS2_17execution_contextEEEEENSt9enable_ifIXeqsrNS_11call_traitsIT_FvT0_EvEE8overloadLNS_13overload_typeE2EENSL_11result_typeEE4typeEOSI_OSJ_
_ZN4asio6detail16thread_info_base8allocateEPS1_m
_ZN4asio6detail15keyword_tss_ptrINS0_10call_stackINS0_14thread_contextENS0_16thread_info_baseEE7contextEED2Ev
_ZTIN4asio6detail9schedulerE
_ZN4asio6detail7tss_ptrINS0_10call_stackINS0_14strand_service11strand_implEhE7contextEED1Ev
_ZN4asio6detail30execution_context_service_baseINS0_23reactive_socket_serviceINS_2ip3tcpEEEEC1ERNS_17execution_contextE
_ZN4asio22service_already_existsD1Ev
pthread_sigmask@GLIBC_2.32
_ZNSaINSt7__cxx1112basic_stringIcSt11char_traitsIcESaIcEEEEC2ERKS5_
_ZN4asio6detail15throw_exceptionINS_2ip16bad_address_castEEEvRKT_
_ZN4asio9execution6detail17any_executor_base10require_fnINS0_12any_executorIJNS0_12context_as_tIRNS_17execution_contextEEENS1_8blocking7never_tILi0EEENS0_11prefer_onlyINS9_10possibly_tILi0EEEEENSC_INS1_16outstanding_work9tracked_tILi0EEEEENSC_INSG_11untracked_tILi0EEEEENSC_INS1_12relationship6fork_tILi0EEEEENSC_INSN_14continuation_tILi0EEEEEEEEvSF_EET_PKvSX_
_ZSt9terminatev@GLIBCXX_3.4
_ZNK4asio12basic_socketINS_2ip3tcpENS_9execution12any_executorIJNS3_12context_as_tIRNS_17execution_contextEEENS3_6detail8blocking7never_tILi0EEENS3_11prefer_onlyINSA_10possibly_tILi0EEEEENSD_INS9_16outstanding_work9tracked_tILi0EEEEENSD_INSH_11untracked_tILi0EEEEENSD_INS9_12relationship6fork_tILi0EEEEENSD_INSO_14continuation_tILi0EEEEEEEEE7is_openEv
_ZNK4asio6detail17handler_work_baseINS_9execution12any_executorIJNS2_12context_as_tIRNS_17execution_contextEEENS2_6detail8blocking7never_tILi0EEENS2_11prefer_onlyINS9_10possibly_tILi0EEEEENSC_INS8_16outstanding_work9tracked_tILi0EEEEENSC_INSG_11untracked_tILi0EEEEENSC_INS8_12relationship6fork_tILi0EEEEENSC_INSN_14continuation_tILi0EEEEEEEEvNS_10io_contextENS_8executorEvE9owns_workEv
_ZN4asio6detail7tss_ptrINS0_10call_stackINS0_14thread_contextENS0_16thread_info_baseEE7contextEED1Ev
_ZSt8_DestroyIPcEvT_S1_
_ZTISt12system_error@GLIBCXX_3.4.11
_ZNK13asio_query_fn4implclIRKN4asio10io_context19basic_executor_typeISaIvELj4EEERKNS2_9execution11prefer_onlyINS9_6detail16outstanding_work11untracked_tILi0EEEEEEENSt9enable_ifIXeqsrNS_11call_traitsIT_FvT0_EvEE8overloadLNS_13overload_typeE0EENSN_11result_typeEE4typeEOSK_OSL_
_ZNSt12_Destroy_auxILb1EE9__destroyIPcEEvT_S3_
_ZN4asio6detail19scheduler_operationC1EPFvPvPS1_RKSt10error_codemE
_ZNK4asio6detail14io_object_implINS0_23reactive_socket_serviceINS_2ip3tcpEEENS_9execution12any_executorIJNS6_12context_as_tIRNS_17execution_contextEEENS6_6detail8blocking7never_tILi0EEENS6_11prefer_onlyINSD_10possibly_tILi0EEEEENSG_INSC_16outstanding_work9tracked_tILi0EEEEENSG_INSK_11untracked_tILi0EEEEENSG_INSC_12relationship6fork_tILi0EEEEENSG_INSR_14continuation_tILi0EEEEEEEEE18get_implementationEv
_ZNK4asio10io_context19basic_executor_typeISaIvELj4EE7requireENS_9execution6detail8blocking10possibly_tILi0EEE
_ZN23asio_execution_start_fn15static_instanceINS_4implEE8instanceE
_ZNSt6thread2idC1Ev
_ZN4asio6detail28reactive_socket_recv_op_baseINS_17mutable_buffers_1EEC2ERKSt10error_codeihRKS2_iPFvPvPNS0_19scheduler_operationES6_mE
_ZN25asio_execution_connect_fn15static_instanceINS_4implEE8instanceE
nanosleep@GLIBC_2.2.5
_ZTIN4asio10io_context19basic_executor_typeISaIvELj0EEE
_ZN4asio6detail19recycling_allocatorINS0_11executor_opINS0_17executor_functionESaIvENS0_19scheduler_operationEEENS0_16thread_info_base11default_tagEEC2IvEERKNS1_IT_S8_EE
_ZNK4asio9execution6detail17any_executor_base6objectINS_10io_context19basic_executor_typeISaIvELj4EEEEERKT_v
_ZN4asio9execution11prefer_onlyINS0_6detail16outstanding_work9tracked_tILi0EEEEC2ERKS5_
_ZTSN4asio6detail23reactive_socket_serviceINS_2ip3tcpEEE
_ZNSt12_Vector_baseIcSaIcEEC1EmRKS0_
_ZN4asio6detail19scheduler_operationC2EPFvPvPS1_RKSt10error_codemE
_ZN4asio9execution6detaileqERKNS1_10blocking_tILi0EEES5_
_ZN9__gnu_cxx13new_allocatorINSt7__cxx1112basic_stringIcSt11char_traitsIcESaIcEEEE8allocateEmPKv
_ZN4asio9execution6detail17any_executor_base14prefer_fn_implINS0_12any_executorIJNS0_12context_as_tIRNS_17execution_contextEEENS1_8blocking7never_tILi0EEENS0_11prefer_onlyINS9_10possibly_tILi0EEEEENSC_INS1_16outstanding_work9tracked_tILi0EEEEENSC_INSG_11untracked_tILi0EEEEENSC_INS1_12relationship6fork_tILi0EEEEENSC_INSN_14continuation_tILi0EEEEEEEEvS8_EET_PKvSX_PNSt9enable_ifIXsrSt7is_sameIT0_vE5valueEvE4typeE
_ZN4asio6detail13epoll_reactor17do_timerfd_createEv
_ZN4asio6detail11executor_opINS0_22executor_function_viewESaIvENS0_19scheduler_operationEE3ptrD1Ev
_ZN4asio9execution6detail17any_executor_base9prefer_fnINS0_12any_executorIJNS0_12context_as_tIRNS_17execution_contextEEENS1_8blocking7never_tILi0EEENS0_11prefer_onlyINS9_10possibly_tILi0EEEEENSC_INS1_16outstanding_work9tracked_tILi0EEEEENSC_INSG_11untracked_tILi0EEEEENSC_INS1_12relationship6fork_tILi0EEEEENSC_INSN_14continuation_tILi0EEEEEEEENS_10io_context19basic_executor_typeISaIvELj4EEESM_EET_PKvS11_
_ZN4asio6detail8op_queueINS0_10reactor_opEEC1Ev
_ZNSt6chrono8durationIlSt5ratioILl1ELl1000000000EEEC1IlvEERKT_
_ZN4asio6detail7tss_ptrINS0_10call_stackINS0_23strand_executor_service11strand_implEhE7contextEEC2Ev
sigfillset@GLIBC_2.2.5
_ZN4asio10io_context19basic_executor_typeISaIvELj0EED1Ev
_ZN4asio19basic_stream_socketINS_2ip3tcpENS_9execution12any_executorIJNS3_12context_as_tIRNS_17execution_contextEEENS3_6detail8blocking7never_tILi0EEENS3_11prefer_onlyINSA_10possibly_tILi0EEEEENSD_INS9_16outstanding_work9tracked_tILi0EEEEENSD_INSH_11untracked_tILi0EEEEENSD_INS9_12relationship6fork_tILi0EEEEENSD_INSO_14continuation_tILi0EEEEEEEEE10write_someINS_17mutable_buffers_1EEEmRKT_RSt10error_code
_ZN4asio6detail10socket_ops6socketEiiiRSt10error_code
_ZNSt6atomicIlEC1El
_ZN4asio21invalid_service_ownerC2Ev
_ZN4asio6detail23get_recycling_allocatorISaIvENS0_16thread_info_base21executor_function_tagEE3getERKS2_
recv@GLIBC_2.2.5
_ZN4asio6detail15keyword_tss_ptrINS0_10call_stackINS0_14strand_service11strand_implEhE7contextEEC1Ev
_ZN4asio6detail16thread_info_base25capture_current_exceptionEv
_ZN4asio6detail10socket_ops16clear_last_errorEv
_ZN4asio6detail11executor_opINS0_17executor_functionESaIvENS0_19scheduler_operationEED1Ev
_ZN30asio_execution_bulk_execute_fn15static_instanceINS_4implEE8instanceE
_IO_stdin_used
_ZSt10_ConstructIcJEEvPT_DpOT0_
_ZZN4asio9execution6detail17any_executor_base16target_fns_tableINS_10io_context19basic_executor_typeISaIvELj0EEEEEPKNS2_10target_fnsEbPNSt9enable_ifIXntsrSt7is_sameIT_vE5valueEvE4typeEE16fns_with_execute
_ZNSt10unique_ptrINSt6thread6_StateESt14default_deleteIS1_EEC2IS3_vEEPS1_
_ZN4asio6detail23reactive_socket_serviceINS_2ip3tcpEE4openERNS4_19implementation_typeERKS3_RSt10error_code
pthread_cond_broadcast@GLIBC_2.3.2
_ZN4asio6detail11executor_opINS0_17executor_functionESaIvENS0_19scheduler_operationEE3ptrD1Ev
_ZN4asio9execution6detail17any_executor_base15require_fn_implINS0_12any_executorIJNS0_12context_as_tIRNS_17execution_contextEEENS1_8blocking7never_tILi0EEENS0_11prefer_onlyINS9_10possibly_tILi0EEEEENSC_INS1_16outstanding_work9tracked_tILi0EEEEENSC_INSG_11untracked_tILi0EEEEENSC_INS1_12relationship6fork_tILi0EEEEENSC_INSN_14continuation_tILi0EEEEEEEENS_10io_context19basic_executor_typeISaIvELj4EEEST_EET_PKvS11_z
_ZN4asio9execution6detail17any_executor_base8query_fnINS_10io_context19basic_executor_typeISaIvELj0EEENS0_12context_as_tIRNS_17execution_contextEEEEEvPvPKvSE_
_ZN4asio9execution6detail20prefer_only_propertyINS1_16outstanding_work9tracked_tILi0EEEvEC2ERKS5_
write@GLIBC_2.2.5
_ZN4asio9execution6detail17any_executor_base9prefer_fnINS0_12any_executorIJNS0_12context_as_tIRNS_17execution_contextEEENS1_8blocking7never_tILi0EEENS0_11prefer_onlyINS9_10possibly_tILi0EEEEENSC_INS1_16outstanding_work9tracked_tILi0EEEEENSC_INSG_11untracked_tILi0EEEEENSC_INS1_12relationship6fork_tILi0EEEEENSC_INSN_14continuation_tILi0EEEEEEEENS_10io_context19basic_executor_typeISaIvELj0EEESF_EET_PKvS11_
_ZN4asio6detail8op_queueINS0_10reactor_opEE3popEv
_ZN4asio9execution6detail17any_executor_base15require_fn_implINS0_12any_executorIJNS0_12context_as_tIRNS_17execution_contextEEENS1_8blocking7never_tILi0EEENS0_11prefer_onlyINS9_10possibly_tILi0EEEEENSC_INS1_16outstanding_work9tracked_tILi0EEEEENSC_INSG_11untracked_tILi0EEEEENSC_INS1_12relationship6fork_tILi0EEEEENSC_INSN_14continuation_tILi0EEEEEEEENS_10io_context19basic_executor_typeISaIvELj0EEESJ_EET_PKvS11_z
_ZTIN4asio6detail12posix_thread9func_baseE
_ZNSt12_Vector_baseINSt7__cxx1112basic_stringIcSt11char_traitsIcESaIcEEESaIS5_EE12_Vector_implD1Ev
_ZSt17__throw_bad_allocv@GLIBCXX_3.4
_ZN4asio2ip10address_v6C1ERKSt5arrayIhLm16EEm
_ZNK9__gnu_cxx13new_allocatorINSt7__cxx1112basic_stringIcSt11char_traitsIcESaIcEEEE11_M_max_sizeEv
_ZN4asio6detail22executor_function_view8completeIS1_EEvPv
_ZNKSt13__atomic_baseIlEcvlEv
strchr@GLIBC_2.2.5
_ZNK13asio_query_fn4implclIRKN4asio10io_context19basic_executor_typeISaIvELj0EEERKNS2_9execution11prefer_onlyINS9_6detail12relationship6fork_tILi0EEEEEEENSt9enable_ifIXeqsrNS_11call_traitsIT_FvT0_EvEE8overloadLNS_13overload_typeE2EENSN_11result_typeEE4typeEOSK_OSL_
_ZN4asio9execution6detail17any_executor_base9prefer_fnINS0_12any_executorIJNS0_12context_as_tIRNS_17execution_contextEEENS1_8blocking7never_tILi0EEENS0_11prefer_onlyINS9_10possibly_tILi0EEEEENSC_INS1_16outstanding_work9tracked_tILi0EEEEENSC_INSG_11untracked_tILi0EEEEENSC_INS1_12relationship6fork_tILi0EEEEENSC_INSN_14continuation_tILi0EEEEEEEENS_10io_context19basic_executor_typeISaIvELj0EEESJ_EET_PKvS11_
_ZTSN4asio21invalid_service_ownerE
_ZN4asio6detail7tss_ptrINS0_10call_stackINS0_14thread_contextENS0_16thread_info_baseEE7contextEEC1Ev
_ZN4asio6detail16service_registryC2ERNS_17execution_contextE
_ZNSt12_Vector_baseIcSaIcEE13_M_deallocateEPcm
_ZNK13asio_query_fn4implclIRKN4asio10io_context19basic_executor_typeISaIvELj4EEERKNS2_9execution6detail8blocking7never_tILi0EEEEENSt9enable_ifIXeqsrNS_11call_traitsIT_FvT0_EvEE8overloadLNS_13overload_typeE1EENSL_11result_typeEE4typeEOSI_OSJ_
_ZN4asio6detail7tss_ptrINS0_10call_stackINS0_23strand_executor_service11strand_implEhE7contextEEC1Ev
_ZN4asio9execution6detail17any_executor_base14prefer_fn_implINS0_12any_executorIJNS0_12context_as_tIRNS_17execution_contextEEENS1_8blocking7never_tILi0EEENS0_11prefer_onlyINS9_10possibly_tILi0EEEEENSC_INS1_16outstanding_work9tracked_tILi0EEEEENSC_INSG_11untracked_tILi0EEEEENSC_INS1_12relationship6fork_tILi0EEEEENSC_INSN_14continuation_tILi0EEEEEEEEvSJ_EET_PKvSX_PNSt9enable_ifIXsrSt7is_sameIT0_vE5valueEvE4typeE
_ZN4asio6detail22executor_function_viewC2IS1_EERT_
_ZN4asio6detail15timer_queue_set14get_all_timersERNS0_8op_queueINS0_19scheduler_operationEEE
_ZN4asio17execution_context2idC2Ev
_ZN4asio9execution6detail17any_executor_baseC1EOS2_
_ZN4asio6detail15keyword_tss_ptrINS0_10call_stackINS0_14strand_service11strand_implEhE7contextEED1Ev
_ZN4asio6detail11posix_mutexD2Ev
_ZNSt7__cxx1112basic_stringIcSt11char_traitsIcESaIcEE12_M_constructIPKcEEvT_S8_St20forward_iterator_tag
_ZN4asio6detail13epoll_reactor16descriptor_state10perform_ioEj
_ZN4asio19basic_stream_socketINS_2ip3tcpENS_9execution12any_executorIJNS3_12context_as_tIRNS_17execution_contextEEENS3_6detail8blocking7never_tILi0EEENS3_11prefer_onlyINSA_10possibly_tILi0EEEEENSD_INS9_16outstanding_work9tracked_tILi0EEEEENSD_INSH_11untracked_tILi0EEEEENSD_INS9_12relationship6fork_tILi0EEEEENSD_INSO_14continuation_tILi0EEEEEEEEEC1INS_10io_contextEEERT_PNSt9enable_ifIXsrSt14is_convertibleIS10_S7_E5valueEvE4typeE
_ZNK4asio10io_context19basic_executor_typeISaIvELj0EE7executeINS_6detail17executor_functionEEEvOT_
_ZN4asio9execution6detail20prefer_only_propertyINS1_8blocking10possibly_tILi0EEEvEC1ERKS5_
_ZN4asio2ip14basic_endpointINS0_3tcpEEC2ERKNS0_7addressEt
_ZN4asio9execution12any_executorIJNS0_12context_as_tIRNS_17execution_contextEEENS0_6detail8blocking7never_tILi0EEENS0_11prefer_onlyINS7_10possibly_tILi0EEEEENSA_INS6_16outstanding_work9tracked_tILi0EEEEENSA_INSE_11untracked_tILi0EEEEENSA_INS6_12relationship6fork_tILi0EEEEENSA_INSL_14continuation_tILi0EEEEEEED1Ev
_ZTIN4asio6detail13epoll_reactorE
__cxa_begin_catch@CXXABI_1.3
_ZNSt12_Vector_baseIcSaIcEEC2EmRKS0_
_ZNKSt7__cxx1112basic_stringIcSt11char_traitsIcESaIcEE5c_strEv@GLIBCXX_3.4.21
_ZN4asio6detail8op_queueINS0_10reactor_opEE5frontEv
_ZZN4asio9execution6detail17any_executor_base16object_fns_tableINS_10io_context19basic_executor_typeISaIvELj0EEEEEPKNS2_10object_fnsEPNSt9enable_ifIXaantsrSt7is_sameIT_vE5valuentsrSC_ISD_St10shared_ptrIvEE5valueEvE4typeEE3fns
_ZNSt15__uniq_ptr_dataINSt6thread6_StateESt14default_deleteIS1_ELb1ELb1EECI1St15__uniq_ptr_implIS1_S3_EEPS1_
_ZTSN4asio6detail15system_categoryE
_ZTIN4asio17execution_context7serviceE
_ZN4asio9execution6detail17any_executor_base17query_fn_non_voidINS_10io_context19basic_executor_typeISaIvELj0EEENS0_11prefer_onlyINS1_12relationship6fork_tILi0EEEEEEEvPvPKvSF_PNSt9enable_ifIXaaaaaasrNS_9can_queryIRKT_RKT0_EE5valuentsrSt7is_sameINSL_29polymorphic_query_result_typeEvE5valuentsrSt12is_referenceISQ_E5valuentsrSt9is_scalarISQ_E5valueEvE4typeE
_ZN4asio17execution_context7service3keyC1Ev
_ZNSt10error_codeaSIN4asio5error11misc_errorsEEENSt9enable_ifIXsrSt18is_error_code_enumIT_E5valueERS_E4typeES6_
_ZNKSt14default_deleteINSt6thread6_StateEEclEPS1_
_ZN4asio6detail9incrementERSt6atomicIlEl
_ZN4asio6detail13epoll_reactor16descriptor_stateD2Ev
_ZN4asio9execution6detail17any_executor_base14prefer_fn_implINS0_12any_executorIJNS0_12context_as_tIRNS_17execution_contextEEENS1_8blocking7never_tILi0EEENS0_11prefer_onlyINS9_10possibly_tILi0EEEEENSC_INS1_16outstanding_work9tracked_tILi0EEEEENSC_INSG_11untracked_tILi0EEEEENSC_INS1_12relationship6fork_tILi0EEEEENSC_INSN_14continuation_tILi0EEEEEEEEvSB_EET_PKvSX_PNSt9enable_ifIXsrSt7is_sameIT0_vE5valueEvE4typeE
_ZN4asio9execution6detail17any_executor_base8query_fnIvNS0_11prefer_onlyINS1_8blocking10possibly_tILi0EEEEEEEvPvPKvSB_
_ZN4asio6detail13socket_holderC1Ei
_ZNK13asio_query_fn4implclIRKN4asio10io_context19basic_executor_typeISaIvELj0EEERKNS2_9execution6detail10blocking_tILi0EEEEENSt9enable_ifIXeqsrNS_11call_traitsIT_FvT0_EvEE8overloadLNS_13overload_typeE1EENSK_11result_typeEE4typeEOSH_OSI_
_ZN4asio5error6detail14netdb_categoryD0Ev
_ZN4asio6detail11executor_opINS0_22executor_function_viewESaIvENS0_19scheduler_operationEED2Ev
_ZN4asio9execution11prefer_onlyINS0_6detail8blocking10possibly_tILi0EEEEC2ERKS5_
_ZN4asio6detail9scheduler10do_run_oneERNS0_27conditionally_enabled_mutex11scoped_lockERNS0_21scheduler_thread_infoERKSt10error_code
_ZN4asio6detail20posix_signal_blockerC1Ev
_ZNSt6vectorIcSaIcEED1Ev
_ZN4asio6detail14io_object_implINS0_23reactive_socket_serviceINS_2ip3tcpEEENS_9execution12any_executorIJNS6_12context_as_tIRNS_17execution_contextEEENS6_6detail8blocking7never_tILi0EEENS6_11prefer_onlyINSD_10possibly_tILi0EEEEENSG_INSC_16outstanding_work9tracked_tILi0EEEEENSG_INSK_11untracked_tILi0EEEEENSG_INSC_12relationship6fork_tILi0EEEEENSG_INSR_14continuation_tILi0EEEEEEEEED2Ev
__cxa_finalize@GLIBC_2.2.5
_ZN4asio6detail15system_categoryD1Ev
_ZN4asio9execution5queryINS_10io_context19basic_executor_typeISaIvELj0EEENS0_6detail8blocking10possibly_tILi0EEEEENS_12query_resultIRKT_RKS9_E4typeESD_RKNS0_11prefer_onlyIT0_EEPNSt9enable_ifIXaasrSt7is_sameISJ_S9_E5valuesrNS_9can_queryISD_SF_EE5valueEvE4typeE
_ZNSt7__cxx1112basic_stringIcSt11char_traitsIcESaIcEEC1ERKS4_@GLIBCXX_3.4.21
strlen@GLIBC_2.2.5
_ZNK13asio_query_fn4implclIRKN4asio10io_context19basic_executor_typeISaIvELj0EEERKNS2_9execution6detail12relationship6fork_tILi0EEEEENSt9enable_ifIXeqsrNS_11call_traitsIT_FvT0_EvEE8overloadLNS_13overload_typeE1EENSL_11result_typeEE4typeEOSI_OSJ_
_ZN4asio9execution6detail17any_executor_base13query_fn_implINS_10io_context19basic_executor_typeISaIvELj4EEENS0_12context_as_tIRNS_17execution_contextEEEEEvPvPKvSE_PNSt9enable_ifIXntsrSt7is_sameIT_vE5valueEvE4typeE
_ZN4asio9execution6detail17any_executor_base15require_fn_implINS0_12any_executorIJNS0_12context_as_tIRNS_17execution_contextEEENS1_8blocking7never_tILi0EEENS0_11prefer_onlyINS9_10possibly_tILi0EEEEENSC_INS1_16outstanding_work9tracked_tILi0EEEEENSC_INSG_11untracked_tILi0EEEEENSC_INS1_12relationship6fork_tILi0EEEEENSC_INSN_14continuation_tILi0EEEEEEEEvSM_EET_PKvSX_PNSt9enable_ifIXsrSt7is_sameIT0_vE5valueEvE4typeE
_ZNK4asio2ip3tcp6familyEv
_ZNK4asio12const_buffer4dataEv
_ZN4asio9execution6detail17any_executor_base8query_fnINS_10io_context19basic_executor_typeISaIvELj4EEENS0_12context_as_tIRNS_17execution_contextEEEEEvPvPKvSE_
memcmp@GLIBC_2.2.5
_ZN4asio6detail8op_queueINS0_10reactor_opEE4pushEPS2_
_ZNK4asio2ip16bad_address_cast4whatEv
_ZNK13asio_query_fn4implclIRKN4asio10io_context19basic_executor_typeISaIvELj0EEERKNS2_9execution6detail8blocking10possibly_tILi0EEEEENSt9enable_ifIXeqsrNS_11call_traitsIT_FvT0_EvEE8overloadLNS_13overload_typeE1EENSL_11result_typeEE4typeEOSI_OSJ_
_ZNKSt3_V214error_category10equivalentEiRKSt15error_condition@GLIBCXX_3.4.21
_ZN4asio6detail17handler_work_baseINS_9execution12any_executorIJNS2_12context_as_tIRNS_17execution_contextEEENS2_6detail8blocking7never_tILi0EEENS2_11prefer_onlyINS9_10possibly_tILi0EEEEENSC_INS8_16outstanding_work9tracked_tILi0EEEEENSC_INSG_11untracked_tILi0EEEEENSC_INS8_12relationship6fork_tILi0EEEEENSC_INSN_14continuation_tILi0EEEEEEEEvNS_10io_contextENS_8executorEvEC2ERKSU_
_ZN4asio9execution6detail17any_executor_base9prefer_fnINS0_12any_executorIJNS0_12context_as_tIRNS_17execution_contextEEENS1_8blocking7never_tILi0EEENS0_11prefer_onlyINS9_10possibly_tILi0EEEEENSC_INS1_16outstanding_work9tracked_tILi0EEEEENSC_INSG_11untracked_tILi0EEEEENSC_INS1_12relationship6fork_tILi0EEEEENSC_INSN_14continuation_tILi0EEEEEEEENS_10io_context19basic_executor_typeISaIvELj4EEESQ_EET_PKvS11_
_ZN4asio9execution6detail17any_executor_base14prefer_fn_implINS0_12any_executorIJNS0_12context_as_tIRNS_17execution_contextEEENS1_8blocking7never_tILi0EEENS0_11prefer_onlyINS9_10possibly_tILi0EEEEENSC_INS1_16outstanding_work9tracked_tILi0EEEEENSC_INSG_11untracked_tILi0EEEEENSC_INS1_12relationship6fork_tILi0EEEEENSC_INSN_14continuation_tILi0EEEEEEEEvSQ_EET_PKvSX_PNSt9enable_ifIXsrSt7is_sameIT0_vE5valueEvE4typeE
_ZNSt6thread6_StateD2Ev@GLIBCXX_3.4.22
_ZN4asio17execution_contextC1Ev
_ZNSt10error_code6assignEiRKNSt3_V214error_categoryE
_ZN4asio9execution5queryINS_10io_context19basic_executor_typeISaIvELj0EEENS0_6detail12relationship6fork_tILi0EEEEENS_12query_resultIRKT_RKS9_E4typeESD_RKNS0_11prefer_onlyIT0_EEPNSt9enable_ifIXaasrSt7is_sameISJ_S9_E5valuesrNS_9can_queryISD_SF_EE5valueEvE4typeE
_ZN4asio6detail11noncopyableC2Ev
_ZN4asio6detail13epoll_reactor11get_timeoutER10itimerspec
_ZN4asio9execution6detail17any_executor_base16construct_objectINS_10io_context19basic_executor_typeISaIvELj0EEEEEvRT_St17integral_constantIbLb1EE
_ZZN4asio9execution12any_executorIJNS0_12context_as_tIRNS_17execution_contextEEENS0_6detail8blocking7never_tILi0EEENS0_11prefer_onlyINS7_10possibly_tILi0EEEEENSA_INS6_16outstanding_work9tracked_tILi0EEEEENSA_INSE_11untracked_tILi0EEEEENSA_INS6_12relationship6fork_tILi0EEEEENSA_INSL_14continuation_tILi0EEEEEEE14prop_fns_tableIvEEPKNS6_17any_executor_base8prop_fnsISS_EEvE3fns
_ZNSt9exceptionC1ERKS_
_ZN4asio9execution12any_executorIJNS0_12context_as_tIRNS_17execution_contextEEENS0_6detail8blocking7never_tILi0EEENS0_11prefer_onlyINS7_10possibly_tILi0EEEEENSA_INS6_16outstanding_work9tracked_tILi0EEEEENSA_INSE_11untracked_tILi0EEEEENSA_INS6_12relationship6fork_tILi0EEEEENSA_INSL_14continuation_tILi0EEEEEEE14prop_fns_tableINS_10io_context19basic_executor_typeISaIvELj0EEEEEPKNS6_17any_executor_base8prop_fnsISS_EEv
_ZN4asio6detail12posix_thread4funcINS0_9scheduler15thread_functionEEC2ES4_
_ZNSt12_Vector_baseIcSaIcEE17_Vector_impl_dataC1Ev
_ZN4asio10io_context19basic_executor_typeISaIvELj0EEC1ERS0_
_ZNSt11_Tuple_implILm1EJSt14default_deleteINSt6thread6_StateEEEE7_M_headERS4_
_ZN4asio9execution6detail17any_executor_base6objectINS_10io_context19basic_executor_typeISaIvELj4EEEEERT_v
epoll_wait@GLIBC_2.3.2
_ZN4asio6detail19scheduler_operation7destroyEv
_ZN4asio9execution6detail17any_executor_base11copy_objectINS_10io_context19basic_executor_typeISaIvELj4EEEEEvRS2_RKS2_
_ZNSt15__exception_ptr12__dest_thunkIN4asio19multiple_exceptionsEEEvPv
main
_ZSt4endlIcSt11char_traitsIcEERSt13basic_ostreamIT_T0_ES6_@GLIBCXX_3.4
__cxa_allocate_exception@CXXABI_1.3
_ZN4asio9execution11allocator_tISaIvEEC1ERKS2_
_ZN4asio9execution6detail17any_executor_base8query_fnIvNS0_11prefer_onlyINS1_12relationship6fork_tILi0EEEEEEEvPvPKvSB_
_ZN4asio2ip16bad_address_castD1Ev
_ZN4asio6detail30execution_context_service_baseINS0_13epoll_reactorEED1Ev
send@GLIBC_2.2.5
_ZN4asio6detail13socket_holderC2Ei
_ZN4asio9execution6detail17any_executor_base17query_fn_non_voidINS_10io_context19basic_executor_typeISaIvELj4EEENS0_11prefer_onlyINS1_16outstanding_work9tracked_tILi0EEEEEEEvPvPKvSF_PNSt9enable_ifIXaaaaaasrNS_9can_queryIRKT_RKT0_EE5valuentsrSt7is_sameINSL_29polymorphic_query_result_typeEvE5valuentsrSt12is_referenceISQ_E5valuentsrSt9is_scalarISQ_E5valueEvE4typeE
_ZN4asio6detail11posix_mutex4lockEv
_ZNSt15__uniq_ptr_implINSt6thread6_StateESt14default_deleteIS1_EEC1EPS1_
_ZN4asio9execution6detail17any_executor_base10require_fnINS0_12any_executorIJNS0_12context_as_tIRNS_17execution_contextEEENS1_8blocking7never_tILi0EEENS0_11prefer_onlyINS9_10possibly_tILi0EEEEENSC_INS1_16outstanding_work9tracked_tILi0EEEEENSC_INSG_11untracked_tILi0EEEEENSC_INS1_12relationship6fork_tILi0EEEEENSC_INSN_14continuation_tILi0EEEEEEEENS_10io_context19basic_executor_typeISaIvELj0EEESF_EET_PKvS11_
pthread_condattr_setclock@GLIBC_2.34
_ZN4asio9execution6detail17any_executor_base9prefer_fnINS0_12any_executorIJNS0_12context_as_tIRNS_17execution_contextEEENS1_8blocking7never_tILi0EEENS0_11prefer_onlyINS9_10possibly_tILi0EEEEENSC_INS1_16outstanding_work9tracked_tILi0EEEEENSC_INSG_11untracked_tILi0EEEEENSC_INS1_12relationship6fork_tILi0EEEEENSC_INSN_14continuation_tILi0EEEEEEEENS_10io_context19basic_executor_typeISaIvELj4EEEST_EET_PKvS11_
_ZNSt10unique_ptrINSt6thread6_StateESt14default_deleteIS1_EED1Ev
_ZN4asio6detail9scheduler18abandon_operationsERNS0_8op_queueINS0_19scheduler_operationEEE
_ZN4asio6detail19scheduler_operationD2Ev
_ZNK14asio_prefer_fn4implclIRKN4asio10io_context19basic_executor_typeISaIvELj0EEERKNS2_9execution6detail12relationship6fork_tILi0EEEEENSt9enable_ifIXeqsrNS_11call_traitsIT_FvT0_EvEE8overloadLNS_13overload_typeE1EENSL_11result_typeEE4typeEOSI_OSJ_
_ZN4asio9execution6detail17any_executor_base14prefer_fn_implINS0_12any_executorIJNS0_12context_as_tIRNS_17execution_contextEEENS1_8blocking7never_tILi0EEENS0_11prefer_onlyINS9_10possibly_tILi0EEEEENSC_INS1_16outstanding_work9tracked_tILi0EEEEENSC_INSG_11untracked_tILi0EEEEENSC_INS1_12relationship6fork_tILi0EEEEENSC_INSN_14continuation_tILi0EEEEEEEENS_10io_context19basic_executor_typeISaIvELj4EEESM_EET_PKvS11_PNSt9enable_ifIXaantsrSt7is_sameIT0_vE5valuesrT1_13is_preferableEvE4typeE
_ZN4asio9execution6detail17any_executor_base9prefer_fnINS0_12any_executorIJNS0_12context_as_tIRNS_17execution_contextEEENS1_8blocking7never_tILi0EEENS0_11prefer_onlyINS9_10possibly_tILi0EEEEENSC_INS1_16outstanding_work9tracked_tILi0EEEEENSC_INSG_11untracked_tILi0EEEEENSC_INS1_12relationship6fork_tILi0EEEEENSC_INSN_14continuation_tILi0EEEEEEEENS_10io_context19basic_executor_typeISaIvELj4EEESB_EET_PKvS11_
_ZTSN4asio6detail14typeid_wrapperINS0_13epoll_reactorEEE
_ZTVN4asio19multiple_exceptionsE
_ZN4asio6detail12posix_thread18auto_func_base_ptrD1Ev
_ZN4asio10io_context4workC2ERS0_
_ZN4asio9execution6detail17any_executor_base9copy_voidERS2_RKS2_
_ZN4asio6detail17handler_work_baseINS_9execution12any_executorIJNS2_12context_as_tIRNS_17execution_contextEEENS2_6detail8blocking7never_tILi0EEENS2_11prefer_onlyINS9_10possibly_tILi0EEEEENSC_INS8_16outstanding_work9tracked_tILi0EEEEENSC_INSG_11untracked_tILi0EEEEENSC_INS8_12relationship6fork_tILi0EEEEENSC_INSN_14continuation_tILi0EEEEEEEEvNS_10io_contextENS_8executorEvED1Ev
_ZN4asio9execution6detail17any_executor_base19blocking_execute_exINS_10io_context19basic_executor_typeISaIvELj4EEEEEvRKS2_NS_6detail22executor_function_viewE
_ZN4asio6detail18object_pool_access7destroyINS0_13epoll_reactor16descriptor_stateEEEvPT_
_ZNSt10unique_ptrINSt6thread6_StateESt14default_deleteIS1_EE11get_deleterEv
_ZN4asio6detail23reactive_socket_serviceINS_2ip3tcpEED2Ev
_ZN4asio9execution6detail17any_executor_base15require_fn_implINS0_12any_executorIJNS0_12context_as_tIRNS_17execution_contextEEENS1_8blocking7never_tILi0EEENS0_11prefer_onlyINS9_10possibly_tILi0EEEEENSC_INS1_16outstanding_work9tracked_tILi0EEEEENSC_INSG_11untracked_tILi0EEEEENSC_INS1_12relationship6fork_tILi0EEEEENSC_INSN_14continuation_tILi0EEEEEEEENS_10io_context19basic_executor_typeISaIvELj4EEESF_EET_PKvS11_z
_ZN4asio9execution12any_executorIJNS0_12context_as_tIRNS_17execution_contextEEENS0_6detail8blocking7never_tILi0EEENS0_11prefer_onlyINS7_10possibly_tILi0EEEEENSA_INS6_16outstanding_work9tracked_tILi0EEEEENSA_INSE_11untracked_tILi0EEEEENSA_INS6_12relationship6fork_tILi0EEEEENSA_INSL_14continuation_tILi0EEEEEEEC1Ev
_ZN25asio_execution_execute_fn15static_instanceINS_4implEE8instanceE
_ZN4asio19basic_stream_socketINS_2ip3tcpENS_9execution12any_executorIJNS3_12context_as_tIRNS_17execution_contextEEENS3_6detail8blocking7never_tILi0EEENS3_11prefer_onlyINSA_10possibly_tILi0EEEEENSD_INS9_16outstanding_work9tracked_tILi0EEEEENSD_INSH_11untracked_tILi0EEEEENSD_INS9_12relationship6fork_tILi0EEEEENSD_INSO_14continuation_tILi0EEEEEEEEEC2INS_10io_contextEEERT_PNSt9enable_ifIXsrSt14is_convertibleIS10_S7_E5valueEvE4typeE
_ZN4asio6detail28reactive_socket_service_base7do_openERNS1_24base_implementation_typeEiiiRSt10error_code
_ZSt20__throw_length_errorPKc@GLIBCXX_3.4
_ZN4asio19multiple_exceptionsD0Ev
_ZN4asio9execution6detail17any_executor_base8query_fnINS_10io_context19basic_executor_typeISaIvELj0EEENS0_11prefer_onlyINS1_16outstanding_work11untracked_tILi0EEEEEEEvPvPKvSF_
_ZTSN4asio22service_already_existsE
_ZNK4asio9execution12any_executorIJNS0_12context_as_tIRNS_17execution_contextEEENS0_6detail8blocking7never_tILi0EEENS0_11prefer_onlyINS7_10possibly_tILi0EEEEENSA_INS6_16outstanding_work9tracked_tILi0EEEEENSA_INSE_11untracked_tILi0EEEEENSA_INS6_12relationship6fork_tILi0EEEEENSA_INSL_14continuation_tILi0EEEEEEE6preferISG_EESS_RKT_PNSt9enable_ifIXsrNSS_36find_convertible_preferable_propertyISU_EE5valueEvE4typeE
_ZN4asio2ip15make_address_v6EPKcRSt10error_code
_ZN4asio6detail11object_poolINS0_13epoll_reactor16descriptor_stateEEC1Ev
_ZNK13asio_query_fn4implclIRKN4asio10io_context19basic_executor_typeISaIvELj0EEERKNS2_9execution11prefer_onlyINS9_6detail8blocking10possibly_tILi0EEEEEEENSt9enable_ifIXeqsrNS_11call_traitsIT_FvT0_EvEE8overloadLNS_13overload_typeE2EENSN_11result_typeEE4typeEOSK_OSL_
_ZN4asio9execution6detail17any_executor_base13target_objectINS_10io_context19basic_executor_typeISaIvELj4EEEEEPKvRKS2_
_ZN4asio9execution6detail18outstanding_work_tILi0EE7trackedE
_ZN4asio6detail15keyword_tss_ptrINS0_10call_stackINS0_14thread_contextENS0_16thread_info_baseEE7contextEED1Ev
memset@GLIBC_2.2.5
_ZN4asio6detail7tss_ptrINS0_10call_stackINS0_14strand_service11strand_implEhE7contextEED2Ev
_ZNK25asio_execution_execute_fn4implclIRKN4asio10io_context19basic_executor_typeISaIvELj0EEENS2_6detail17executor_functionEEENSt9enable_ifIXeqsrNS_11call_traitsIT_FvT0_EvEE8overloadLNS_13overload_typeE0EENSG_11result_typeEE4typeEOSD_OSE_
_ZN4asio6detail15timer_queue_setC2Ev
_ZN4asio9execution6detail17any_executor_base14prefer_fn_implINS0_12any_executorIJNS0_12context_as_tIRNS_17execution_contextEEENS1_8blocking7never_tILi0EEENS0_11prefer_onlyINS9_10possibly_tILi0EEEEENSC_INS1_16outstanding_work9tracked_tILi0EEEEENSC_INSG_11untracked_tILi0EEEEENSC_INS1_12relationship6fork_tILi0EEEEENSC_INSN_14continuation_tILi0EEEEEEEENS_10io_context19basic_executor_typeISaIvELj4EEESB_EET_PKvS11_PNSt9enable_ifIXaantsrSt7is_sameIT0_vE5valuesrT1_13is_preferableEvE4typeE
_ZN4asio9execution6detail17any_executor_base14target_type_exINS_10io_context19basic_executor_typeISaIvELj4EEEEERKSt9type_infov
_ZNSt9exceptionC2Ev
_ZNK4asio10io_context19basic_executor_typeISaIvELj4EE7requireENS_9execution6detail8blocking7never_tILi0EEE
_ZN4asio6detail9scheduler12work_cleanupD2Ev
__dso_handle
_ZN4asio9execution6detail17any_executor_base13query_fn_implIvNS0_11prefer_onlyINS1_12relationship6fork_tILi0EEEEEEEvPvPKvSB_PNSt9enable_ifIXsrSt7is_sameIT_vE5valueEvE4typeE
_ZN4asio6detail17executor_functionC1EOS1_
_ZNK14asio_prefer_fn4implclIRKN4asio10io_context19basic_executor_typeISaIvELj4EEERKNS2_9execution6detail8blocking10possibly_tILi0EEEEENSt9enable_ifIXeqsrNS_11call_traitsIT_FvT0_EvEE8overloadLNS_13overload_typeE1EENSL_11result_typeEE4typeEOSI_OSJ_
_ZN4asio6detail14io_object_implINS0_23reactive_socket_serviceINS_2ip3tcpEEENS_9execution12any_executorIJNS6_12context_as_tIRNS_17execution_contextEEENS6_6detail8blocking7never_tILi0EEENS6_11prefer_onlyINSD_10possibly_tILi0EEEEENSG_INSC_16outstanding_work9tracked_tILi0EEEEENSG_INSK_11untracked_tILi0EEEEENSG_INSC_12relationship6fork_tILi0EEEEENSG_INSR_14continuation_tILi0EEEEEEEEEC2INS_10io_contextEEERT_PNSt9enable_ifIXsrSt14is_convertibleIS13_SA_E5valueEvE4typeE
_ZNSaIcEC1ERKS_@GLIBCXX_3.4
_ZN4asio2ip7addressC1Ev
_ZN4asio9execution6detail17any_executor_base12execute_voidERKS2_ONS_6detail17executor_functionE
_ZN4asio6detail10service_idINS0_9schedulerEED2Ev
_ZN4asio6detail15op_queue_access4nextINS0_10reactor_opEEEPT_S5_
_ZSt8_DestroyINSt7__cxx1112basic_stringIcSt11char_traitsIcESaIcEEEEvPT_
_ZN4asio6detail9scheduler14task_operationC1Ev
_ZN4asio6detail10scoped_ptrINS0_9schedulerEEC1EPS2_
_ZNK14asio_prefer_fn4implclIRKN4asio10io_context19basic_executor_typeISaIvELj0EEERKNS2_9execution11prefer_onlyINS9_6detail16outstanding_work9tracked_tILi0EEEEEEENSt9enable_ifIXeqsrNS_11call_traitsIT_FvT0_EvEE8overloadLNS_13overload_typeE4EENSN_11result_typeEE4typeEOSK_OSL_
_ZNSt3_V215system_categoryEv@GLIBCXX_3.4.21
_ZN4asio6detail10service_idINS0_14strand_serviceEED1Ev
fcntl@GLIBC_2.2.5
_ZNK4asio10io_context19basic_executor_typeISaIvELj4EE7executeINS_6detail17executor_functionEEEvOT_
_ZN4asio6detail16thread_info_baseD1Ev
_ZNSt5arrayIhLm16EEixEm
_ZN9__gnu_cxx13new_allocatorINSt7__cxx1112basic_stringIcSt11char_traitsIcESaIcEEEE10deallocateEPS6_m
_ZNSt7__cxx1112basic_stringIcSt11char_traitsIcESaIcEE4dataEv@GLIBCXX_3.4.26
_ZSt10__distanceIPKNSt7__cxx1112basic_stringIcSt11char_traitsIcESaIcEEEENSt15iterator_traitsIT_E15difference_typeES9_S9_St26random_access_iterator_tag
_ZN4asio9execution6detail17any_executor_base8query_fnINS_10io_context19basic_executor_typeISaIvELj4EEENS0_11prefer_onlyINS1_16outstanding_work9tracked_tILi0EEEEEEEvPvPKvSF_
_ZN4asio6detail15keyword_tss_ptrINS0_10call_stackINS0_14thread_contextENS0_16thread_info_baseEE7contextEEC1Ev
_ZNSt12_Vector_baseINSt7__cxx1112basic_stringIcSt11char_traitsIcESaIcEEESaIS5_EE12_Vector_implC2ERKS6_
_ZN4asio9execution12any_executorIJNS0_12context_as_tIRNS_17execution_contextEEENS0_6detail8blocking7never_tILi0EEENS0_11prefer_onlyINS7_10possibly_tILi0EEEEENSA_INS6_16outstanding_work9tracked_tILi0EEEEENSA_INSE_11untracked_tILi0EEEEENSA_INS6_12relationship6fork_tILi0EEEEENSA_INSL_14continuation_tILi0EEEEEEEC1EOSS_
_ZNK13asio_query_fn4implclIRKN4asio10io_context19basic_executor_typeISaIvELj0EEERKNS2_9execution6detail12relationship14continuation_tILi0EEEEENSt9enable_ifIXeqsrNS_11call_traitsIT_FvT0_EvEE8overloadLNS_13overload_typeE1EENSL_11result_typeEE4typeEOSI_OSJ_
_ZN4asio6detail19recycling_allocatorINS0_11executor_opINS0_17executor_functionESaIvENS0_19scheduler_operationEEENS0_16thread_info_base11default_tagEE8allocateEm
_ZN4asio9execution5queryINS_10io_context19basic_executor_typeISaIvELj0EEERNS_17execution_contextEEET0_RKT_RKNS0_12context_as_tIS8_EEPNSt9enable_ifIXaasrSt7is_sameIS7_S8_E5valuesrNS_9can_queryISB_RKNS0_6detail9context_tILi0EEEEE5valueEvE4typeE
_ZNSt8bad_castC2ERKS_
_ZTVNSt6thread6_StateE@GLIBCXX_3.4.22
_ZTIN4asio6detail23reactive_socket_serviceINS_2ip3tcpEEE
_ZN4asio9execution6detail14relationship_tILi0EEC2ENS1_12relationship14continuation_tILi0EEE
_ZN4asio6detail23reactive_socket_serviceINS_2ip3tcpEE7connectERNS4_19implementation_typeERKNS2_14basic_endpointIS3_EERSt10error_code
_ZN4asio6detail15keyword_tss_ptrINS0_10call_stackINS0_23strand_executor_service11strand_implEhE7contextEED2Ev
_ZTVSt8bad_cast@GLIBCXX_3.4
_ZNSt7__cxx1112basic_stringIcSt11char_traitsIcESaIcEEC1EOS4_@GLIBCXX_3.4.21
_ZN4asio9execution6detail10blocking_tILi0EEC2ENS1_8blocking10possibly_tILi0EEE
_ZN4asio6detail12posix_threadD2Ev
_ZN4asio9execution6detail17any_executor_base13query_fn_implIvNS1_8blocking7never_tILi0EEEEEvPvPKvS9_PNSt9enable_ifIXsrSt7is_sameIT_vE5valueEvE4typeE
_ZN4asio9execution6detail17any_executor_base10require_fnINS0_12any_executorIJNS0_12context_as_tIRNS_17execution_contextEEENS1_8blocking7never_tILi0EEENS0_11prefer_onlyINS9_10possibly_tILi0EEEEENSC_INS1_16outstanding_work9tracked_tILi0EEEEENSC_INSG_11untracked_tILi0EEEEENSC_INS1_12relationship6fork_tILi0EEEEENSC_INSN_14continuation_tILi0EEEEEEEENS_10io_context19basic_executor_typeISaIvELj0EEES8_EET_PKvS11_
_ZN4asio6detail13epoll_reactor8start_opEiiRPNS1_16descriptor_stateEPNS0_10reactor_opEbb
_ZN4asio12basic_socketINS_2ip3tcpENS_9execution12any_executorIJNS3_12context_as_tIRNS_17execution_contextEEENS3_6detail8blocking7never_tILi0EEENS3_11prefer_onlyINSA_10possibly_tILi0EEEEENSD_INS9_16outstanding_work9tracked_tILi0EEEEENSD_INSH_11untracked_tILi0EEEEENSD_INS9_12relationship6fork_tILi0EEEEENSD_INSO_14continuation_tILi0EEEEEEEEED2Ev
_ZN4asio6detail7tss_ptrINS0_10call_stackINS0_14strand_service11strand_implEhE7contextEEC1Ev
_ZN4asio6detail30execution_context_service_baseINS0_9schedulerEEC1ERNS_17execution_contextE
_ZN4asio6detail17handler_work_baseINS_9execution12any_executorIJNS2_12context_as_tIRNS_17execution_contextEEENS2_6detail8blocking7never_tILi0EEENS2_11prefer_onlyINS9_10possibly_tILi0EEEEENSC_INS8_16outstanding_work9tracked_tILi0EEEEENSC_INSG_11untracked_tILi0EEEEENSC_INS8_12relationship6fork_tILi0EEEEENSC_INSN_14continuation_tILi0EEEEEEEEvNS_10io_contextENS_8executorEvEC1ERKSU_
_ZNK14asio_prefer_fn4implclIRKN4asio10io_context19basic_executor_typeISaIvELj0EEERKNS2_9execution6detail16outstanding_work9tracked_tILi0EEEEENSt9enable_ifIXeqsrNS_11call_traitsIT_FvT0_EvEE8overloadLNS_13overload_typeE1EENSL_11result_typeEE4typeEOSI_OSJ_
_ZSt24__throw_invalid_argumentPKc@GLIBCXX_3.4
_ZN4asio9execution6detail17any_executor_base10execute_exINS_10io_context19basic_executor_typeISaIvELj0EEEEEvRKS2_ONS_6detail17executor_functionE
_ZN4asio6detail11posix_eventD2Ev
_ZGVN4asio6detail30execution_context_service_baseINS0_9schedulerEE2idE
_ZNSt8bad_castC1ERKS_
_ZN4asio9execution6detail17any_executor_baseD2Ev
_ZN4asio2ip10address_v6C1Ev
_ZSt7forwardIN4asio19multiple_exceptionsEEOT_RNSt16remove_referenceIS2_E4typeE
_ZN4asio5error6detail17addrinfo_categoryD1Ev
_ZNSt7__cxx1112basic_stringIcSt11char_traitsIcESaIcEED1Ev@GLIBCXX_3.4.21
_ZNK25asio_execution_execute_fn4implclIRKN4asio10io_context19basic_executor_typeISaIvELj0EEERNS2_6detail22executor_function_viewEEENSt9enable_ifIXeqsrNS_11call_traitsIT_FvT0_EvEE8overloadLNS_13overload_typeE0EENSH_11result_typeEE4typeEOSE_OSF_
_ZNSt10error_codeC1IN4asio5error12basic_errorsEvEET_
_ZTIN4asio6detail14typeid_wrapperINS0_13epoll_reactorEEE
_ZNSt7__cxx1112basic_stringIcSt11char_traitsIcESaIcEEpLEc@GLIBCXX_3.4.21
_ZTIN4asio6detail14thread_contextE
_ZN4asio6detail9scheduler16stop_all_threadsERNS0_27conditionally_enabled_mutex11scoped_lockE
_ZNKSt16initializer_listINSt7__cxx1112basic_stringIcSt11char_traitsIcESaIcEEEE5beginEv
_ZNK4asio10io_context19basic_executor_typeISaIvELj4EE5queryENS_9execution6detail10blocking_tILi0EEE
_ZNSt10error_codeaSIN4asio5error12basic_errorsEEENSt9enable_ifIXsrSt18is_error_code_enumIT_E5valueERS_E4typeES6_
_ZN4asio2ip15make_address_v4EPKcRSt10error_code
_ZN4asio6detail13epoll_reactorD2Ev
_ZZN4asio9execution6detail17any_executor_base16object_fns_tableIvEEPKNS2_10object_fnsEPNSt9enable_ifIXsrSt7is_sameIT_vE5valueEvE4typeEE3fns
_ZNK4asio6detail15timer_queue_set18wait_duration_msecEl
_ZN4asio9execution6detail17any_executor_base13query_fn_implIvNS0_11prefer_onlyINS1_16outstanding_work9tracked_tILi0EEEEEEEvPvPKvSB_PNSt9enable_ifIXsrSt7is_sameIT_vE5valueEvE4typeE
_ZN4asio9execution6detail17any_executor_base9prefer_fnINS0_12any_executorIJNS0_12context_as_tIRNS_17execution_contextEEENS1_8blocking7never_tILi0EEENS0_11prefer_onlyINS9_10possibly_tILi0EEEEENSC_INS1_16outstanding_work9tracked_tILi0EEEEENSC_INSG_11untracked_tILi0EEEEENSC_INS1_12relationship6fork_tILi0EEEEENSC_INSN_14continuation_tILi0EEEEEEEEvS8_EET_PKvSX_
_ZN4asio19multiple_exceptionsC2EOS0_
__cxa_guard_release@CXXABI_1.3
_ZN4asio9execution6preferINS_10io_context19basic_executor_typeISaIvELj4EEENS0_6detail16outstanding_work11untracked_tILi0EEEEENS_13prefer_resultIRKT_JRKS9_EE4typeESD_RKNS0_11prefer_onlyIT0_EEPNSt9enable_ifIXaasrSt7is_sameISJ_S9_E5valuesrNS_10can_preferISD_JSF_EEE5valueEvE4typeE
_ZN4asio6detail14do_throw_errorERKSt10error_code
_ZN4asio9execution12bad_executorD0Ev
_ZN4asio6detail14io_object_implINS0_23reactive_socket_serviceINS_2ip3tcpEEENS_9execution12any_executorIJNS6_12context_as_tIRNS_17execution_contextEEENS6_6detail8blocking7never_tILi0EEENS6_11prefer_onlyINSD_10possibly_tILi0EEEEENSG_INSC_16outstanding_work9tracked_tILi0EEEEENSG_INSK_11untracked_tILi0EEEEENSG_INSC_12relationship6fork_tILi0EEEEENSG_INSR_14continuation_tILi0EEEEEEEEE12get_executorEv
__assert_fail@GLIBC_2.2.5
_ZNSt12_Vector_baseIcSaIcEE12_Vector_implD2Ev
_ZN4asio6detail27conditionally_enabled_mutexD1Ev
_ZN4asio6detail11executor_opINS0_17executor_functionESaIvENS0_19scheduler_operationEE3ptr8allocateERKS3_
_ZNK4asio10io_context19basic_executor_typeISaIvELj0EE7requireENS_9execution6detail12relationship14continuation_tILi0EEE
_ZN4asio9execution6detail10blocking_tILi0EEC1ENS1_8blocking10possibly_tILi0EEE
_ZN4asio17execution_context2idC1Ev
_ZNKSt3_V214error_categoryeqERKS0_
_ZN4asio9execution6detail17any_executor_base10equal_voidERKS2_S4_
_ZN4asio2ip10address_v4C1ERKSt5arrayIhLm4EE
_ZN4asio6detail9scheduler14task_operationC2Ev
_ZNSt13__atomic_baseIlEppEv
_ZN4asio6detail16service_registry16destroy_servicesEv
DW.ref.__gxx_personality_v0
_ZN4asio6detail18object_pool_access4prevINS0_13epoll_reactor16descriptor_stateEEERPT_S6_
_ZN4asio6detail13epoll_reactor16descriptor_state16set_ready_eventsEj
_ZN4asio6detail20posix_signal_blockerC2Ev
_ZNK14asio_prefer_fn4implclIRKN4asio10io_context19basic_executor_typeISaIvELj0EEERKNS2_9execution11prefer_onlyINS9_6detail8blocking10possibly_tILi0EEEEEEENSt9enable_ifIXeqsrNS_11call_traitsIT_FvT0_EvEE8overloadLNS_13overload_typeE4EENSN_11result_typeEE4typeEOSK_OSL_
_ZN4asio10io_context19basic_executor_typeISaIvELj4EEC2ERKS3_
_ZN4asio6detail28reactive_socket_service_baseC2ERNS_17execution_contextE
_ZNSt14__array_traitsIhLm4EE6_S_ptrERA4_Kh
_ZN4asio6detail7tss_ptrINS0_10call_stackINS0_14thread_contextENS0_16thread_info_baseEE7contextEED2Ev
_ZN4asio9execution6detail17any_executor_base16target_fns_tableIvEEPKNS2_10target_fnsEPNSt9enable_ifIXsrSt7is_sameIT_vE5valueEvE4typeE
_ZNSt14numeric_limitsImE3maxEv
_ZN4asio6detail16service_registry11use_serviceINS0_13epoll_reactorEEERT_v
_ZNK4asio9execution6detail17any_executor_basentEv
_ZNKSt9type_infoeqERKS_
_ZNSt12system_errorC2ESt10error_code
_ZN4asio5error6detail14netdb_categoryD1Ev
_ZN4asio17execution_context8shutdownEv
_ZSt25__uninitialized_default_nIPcmET_S1_T0_
_ZN4asio6detail10null_eventC1Ev
_ZN4asio23asio_handler_deallocateEPvmz
_ZN4asio10io_context19basic_executor_typeISaIvELj0EEC2ERS0_
_ZN4asio9execution6detail17any_executor_base15require_fn_implINS0_12any_executorIJNS0_12context_as_tIRNS_17execution_contextEEENS1_8blocking7never_tILi0EEENS0_11prefer_onlyINS9_10possibly_tILi0EEEEENSC_INS1_16outstanding_work9tracked_tILi0EEEEENSC_INSG_11untracked_tILi0EEEEENSC_INS1_12relationship6fork_tILi0EEEEENSC_INSN_14continuation_tILi0EEEEEEEENS_10io_context19basic_executor_typeISaIvELj0EEESM_EET_PKvS11_z
_ZN4asio6detail30execution_context_service_baseINS0_9schedulerEEC2ERNS_17execution_contextE
_ZN4asio6detail11throw_errorERKSt10error_code
_ZN4asio6detail9schedulerD1Ev
_ZN4asio9execution6detail17any_executor_base10require_fnINS0_12any_executorIJNS0_12context_as_tIRNS_17execution_contextEEENS1_8blocking7never_tILi0EEENS0_11prefer_onlyINS9_10possibly_tILi0EEEEENSC_INS1_16outstanding_work9tracked_tILi0EEEEENSC_INSG_11untracked_tILi0EEEEENSC_INS1_12relationship6fork_tILi0EEEEENSC_INSN_14continuation_tILi0EEEEEEEENS_10io_context19basic_executor_typeISaIvELj4EEEST_EET_PKvS11_
_ZN4asio9execution6detail17any_executor_base14prefer_fn_implINS0_12any_executorIJNS0_12context_as_tIRNS_17execution_contextEEENS1_8blocking7never_tILi0EEENS0_11prefer_onlyINS9_10possibly_tILi0EEEEENSC_INS1_16outstanding_work9tracked_tILi0EEEEENSC_INSG_11untracked_tILi0EEEEENSC_INS1_12relationship6fork_tILi0EEEEENSC_INSN_14continuation_tILi0EEEEEEEENS_10io_context19basic_executor_typeISaIvELj4EEESQ_EET_PKvS11_PNSt9enable_ifIXaantsrSt7is_sameIT0_vE5valuesrT1_13is_preferableEvE4typeE
_ZN4asio9execution6detail17any_executor_base17query_fn_non_voidINS_10io_context19basic_executor_typeISaIvELj0EEENS0_11prefer_onlyINS1_12relationship14continuation_tILi0EEEEEEEvPvPKvSF_PNSt9enable_ifIXaaaaaasrNS_9can_queryIRKT_RKT0_EE5valuentsrSt7is_sameINSL_29polymorphic_query_result_typeEvE5valuentsrSt12is_referenceISQ_E5valuentsrSt9is_scalarISQ_E5valueEvE4typeE
_ZN4asio10io_context19basic_executor_typeISaIvELj4EEC2EOS3_
_ZN4asio6detail10service_idINS0_23reactive_socket_serviceINS_2ip3tcpEEEED2Ev
_ZNK14asio_prefer_fn4implclIRKN4asio10io_context19basic_executor_typeISaIvELj4EEERKNS2_9execution6detail16outstanding_work11untracked_tILi0EEEEENSt9enable_ifIXeqsrNS_11call_traitsIT_FvT0_EvEE8overloadLNS_13overload_typeE1EENSL_11result_typeEE4typeEOSI_OSJ_
_ZN4asio6detail9scheduler4stopEv
_ZNSt7__cxx1112basic_stringIcSt11char_traitsIcESaIcEE13_M_set_lengthEm@GLIBCXX_3.4.21
_ZN4asio9execution6detail17any_executor_base14prefer_fn_implINS0_12any_executorIJNS0_12context_as_tIRNS_17execution_contextEEENS1_8blocking7never_tILi0EEENS0_11prefer_onlyINS9_10possibly_tILi0EEEEENSC_INS1_16outstanding_work9tracked_tILi0EEEEENSC_INSG_11untracked_tILi0EEEEENSC_INS1_12relationship6fork_tILi0EEEEENSC_INSN_14continuation_tILi0EEEEEEEENS_10io_context19basic_executor_typeISaIvELj0EEEST_EET_PKvS11_PNSt9enable_ifIXaantsrSt7is_sameIT0_vE5valuesrT1_13is_preferableEvE4typeE
_ZN4asio6detail10call_stackINS0_14thread_contextENS0_16thread_info_baseEE3topEv
_ZNK4asio5error6detail14netdb_category4nameEv
_ZNKSt7__cxx1112basic_stringIcSt11char_traitsIcESaIcEE4sizeEv@GLIBCXX_3.4.21
_ZNK4asio6detail15system_category4nameEv
_ZN4asio6detail30execution_context_service_baseINS0_13epoll_reactorEEC2ERNS_17execution_contextE
_ZN4asio6detail27conditionally_enabled_mutex11scoped_lockC2ERS1_
_ZTVN10__cxxabiv117__class_type_infoE@CXXABI_1.3
_ZN4asio2ip14basic_endpointINS0_3tcpEEC2Ev
_ZNK13asio_query_fn4implclIRKN4asio10io_context19basic_executor_typeISaIvELj0EEERKNS2_9execution11prefer_onlyINS9_6detail16outstanding_work11untracked_tILi0EEEEEEENSt9enable_ifIXeqsrNS_11call_traitsIT_FvT0_EvEE8overloadLNS_13overload_typeE0EENSN_11result_typeEE4typeEOSK_OSL_
_ZN4asio6detail15keyword_tss_ptrINS0_10call_stackINS0_14strand_service11strand_implEhE7contextEEC2Ev
_ZSt19__throw_logic_errorPKc@GLIBCXX_3.4
pthread_detach@GLIBC_2.34
_ZNSt6vectorIcSaIcEEC2EmRKS0_
_ZNSt11_Tuple_implILm0EJPNSt6thread6_StateESt14default_deleteIS1_EEEC2Ev
_ZZN9__gnu_cxx6__stoaIlicJiEEET0_PFT_PKT1_PPS3_DpT2_EPKcS5_PmS9_EN11_Save_errnoC2Ev
_ZNSt6vectorINSt7__cxx1112basic_stringIcSt11char_traitsIcESaIcEEESaIS5_EED2Ev
_fini
_ZN4asio6detail9scheduler13work_finishedEv
_ZN9__gnu_cxx11char_traitsIcE2eqERKcS3_
_ZN4asio6detail16std_fenced_blockD1Ev
_ZN4asio9execution6detail17any_executor_base8query_fnINS_10io_context19basic_executor_typeISaIvELj0EEENS0_11prefer_onlyINS1_12relationship6fork_tILi0EEEEEEEvPvPKvSF_
_ZN4asio6detail27conditionally_enabled_mutex11scoped_lockC1ERS1_
_ZN9__gnu_cxx17__is_null_pointerIKcEEbPT_
_ZN4asio6detail10service_idINS0_9schedulerEED1Ev
_ZZN4asio5error17get_misc_categoryEvE8instance
_ZN4asio2ip6detail8endpointC2Ev
_ZN4asio9execution6detail17any_executor_base9prefer_fnINS0_12any_executorIJNS0_12context_as_tIRNS_17execution_contextEEENS1_8blocking7never_tILi0EEENS0_11prefer_onlyINS9_10possibly_tILi0EEEEENSC_INS1_16outstanding_work9tracked_tILi0EEEEENSC_INSG_11untracked_tILi0EEEEENSC_INS1_12relationship6fork_tILi0EEEEENSC_INSN_14continuation_tILi0EEEEEEEEvSQ_EET_PKvSX_
_ZN4asio9execution6detail17any_executor_base9prefer_fnINS0_12any_executorIJNS0_12context_as_tIRNS_17execution_contextEEENS1_8blocking7never_tILi0EEENS0_11prefer_onlyINS9_10possibly_tILi0EEEEENSC_INS1_16outstanding_work9tracked_tILi0EEEEENSC_INSG_11untracked_tILi0EEEEENSC_INS1_12relationship6fork_tILi0EEEEENSC_INSN_14continuation_tILi0EEEEEEEENS_10io_context19basic_executor_typeISaIvELj0EEESM_EET_PKvS11_
__libc_start_main@GLIBC_2.34
_ZN4asio6detail12posix_thread9func_baseD1Ev
_ZN4asio6detail17handler_work_baseINS_9execution12any_executorIJNS2_12context_as_tIRNS_17execution_contextEEENS2_6detail8blocking7never_tILi0EEENS2_11prefer_onlyINS9_10possibly_tILi0EEEEENSC_INS8_16outstanding_work9tracked_tILi0EEEEENSC_INSG_11untracked_tILi0EEEEENSC_INS8_12relationship6fork_tILi0EEEEENSC_INSN_14continuation_tILi0EEEEEEEEvNS_10io_contextENS_8executorEvEC1EOSX_
_ZN4asio2ip10address_v4C2ERKSt5arrayIhLm4EE
_ZN4asio5error15make_error_codeENS0_12basic_errorsE
_ZSt3minImERKT_S2_S2_
_ZNKSt3_V214error_category23default_error_conditionEi@GLIBCXX_3.4.21
_ZN4asio6detail11posix_mutexD1Ev
_ZNSt6chrono8durationIlSt5ratioILl1ELl1000EEEC2IlvEERKT_
_ZN4asio6detail8op_queueINS0_19scheduler_operationEE4pushINS0_10reactor_opEEEvRNS1_IT_EE
_ZNSt6chrono8durationIlSt5ratioILl1ELl1000EEEC1IlvEERKT_
getsockopt@GLIBC_2.2.5
_ZNKSt5arrayIhLm16EE4dataEv
pthread_mutex_unlock@GLIBC_2.2.5
htonl@GLIBC_2.2.5
_ZSt18make_exception_ptrIN4asio19multiple_exceptionsEENSt15__exception_ptr13exception_ptrET_
_ZTSN4asio10io_context19basic_executor_typeISaIvELj0EEE
_ZNK14asio_prefer_fn4implclIRN4asio9execution12any_executorIJNS3_12context_as_tIRNS2_17execution_contextEEENS3_6detail8blocking7never_tILi0EEENS3_11prefer_onlyINSA_10possibly_tILi0EEEEENSD_INS9_16outstanding_work9tracked_tILi0EEEEENSD_INSH_11untracked_tILi0EEEEENSD_INS9_12relationship6fork_tILi0EEEEENSD_INSO_14continuation_tILi0EEEEEEEERKSF_EENSt9enable_ifIXeqsrNS_11call_traitsIT_FvT0_EvEE8overloadLNS_13overload_typeE3EENS14_11result_typeEE4typeEOS11_OS12_
_ZNK15asio_require_fn4implclIRKN4asio10io_context19basic_executor_typeISaIvELj4EEERKNS2_9execution6detail8blocking7never_tILi0EEEEENSt9enable_ifIXeqsrNS_11call_traitsIT_FvT0_EvEE8overloadLNS_13overload_typeE1EENSL_11result_typeEE4typeEOSI_OSJ_
asio_detail_posix_thread_function
_ZZN4asio9execution12any_executorIJNS0_12context_as_tIRNS_17execution_contextEEENS0_6detail8blocking7never_tILi0EEENS0_11prefer_onlyINS7_10possibly_tILi0EEEEENSA_INS6_16outstanding_work9tracked_tILi0EEEEENSA_INSE_11untracked_tILi0EEEEENSA_INS6_12relationship6fork_tILi0EEEEENSA_INSL_14continuation_tILi0EEEEEEE14prop_fns_tableINS_10io_context19basic_executor_typeISaIvELj0EEEEEPKNS6_17any_executor_base8prop_fnsISS_EEvE3fns
_ZTSN4asio5error6detail13misc_categoryE
_ZN4asio6detail10reactor_opC2ERKSt10error_codePFNS1_6statusEPS1_EPFvPvPNS0_19scheduler_operationES4_mE
timerfd_settime@GLIBC_2.8
_ZZN4asio5error18get_netdb_categoryEvE8instance
_ZN4asio10io_contextC1Ev
_ZN4asio6detail10socket_ops15call_getsockoptIjEEiM6msghdrT_iiiPvPm
_ZN4asio6detail28reactive_socket_service_base13base_shutdownEv
_ZN4asio6detail10socket_ops10poll_writeEihiRSt10error_code
_ZNSt12_Vector_baseIcSaIcEED1Ev
_ZN4asio9execution6detail17any_executor_base14prefer_fn_implINS0_12any_executorIJNS0_12context_as_tIRNS_17execution_contextEEENS1_8blocking7never_tILi0EEENS0_11prefer_onlyINS9_10possibly_tILi0EEEEENSC_INS1_16outstanding_work9tracked_tILi0EEEEENSC_INSG_11untracked_tILi0EEEEENSC_INS1_12relationship6fork_tILi0EEEEENSC_INSN_14continuation_tILi0EEEEEEEENS_10io_context19basic_executor_typeISaIvELj4EEESJ_EET_PKvS11_PNSt9enable_ifIXaantsrSt7is_sameIT0_vE5valuesrT1_13is_preferableEvE4typeE
_ZTIN4asio9execution12bad_executorE
_ZNK4asio6detail8op_queueINS0_19scheduler_operationEE5emptyEv
_ZNSt6vectorIcSaIcEED2Ev
_ZN27asio_handler_invoke_helpers6invokeIN4asio6detail22executor_function_viewES3_EEvRT_RT0_
_ZNSt15__exception_ptr13exception_ptrC2EOS0_
_ZSt28__throw_bad_array_new_lengthv@GLIBCXX_3.4.29
_ZN4asio9execution5queryINS_10io_context19basic_executor_typeISaIvELj4EEENS0_6detail12relationship14continuation_tILi0EEEEENS_12query_resultIRKT_RKS9_E4typeESD_RKNS0_11prefer_onlyIT0_EEPNSt9enable_ifIXaasrSt7is_sameISJ_S9_E5valuesrNS_9can_queryISD_SF_EE5valueEvE4typeE
_ZN4asio6detail27conditionally_enabled_mutex11scoped_lock4lockEv
_ZN4asio9execution6detail17any_executor_base8query_fnIvNS0_12context_as_tIRNS_17execution_contextEEEEEvPvPKvSA_
_ZNK14asio_prefer_fn4implclIRKN4asio10io_context19basic_executor_typeISaIvELj0EEERKNS2_9execution6detail16outstanding_work11untracked_tILi0EEEEENSt9enable_ifIXeqsrNS_11call_traitsIT_FvT0_EvEE8overloadLNS_13overload_typeE0EENSL_11result_typeEE4typeEOSI_OSJ_
_ZN4asio17execution_context2idD2Ev
_ZN4asio6detail22executor_function_viewC1IS1_EERT_
_ZN4asio6detail23reactive_socket_serviceINS_2ip3tcpEE19implementation_typeC1Ev
_ZSt10_ConstructINSt7__cxx1112basic_stringIcSt11char_traitsIcESaIcEEEJRKS5_EEvPT_DpOT0_
_ZTIN4asio6detail15system_categoryE
_ZN4asio6detail15keyword_tss_ptrINS0_10call_stackINS0_23strand_executor_service11strand_implEhE7contextEED1Ev
_ZN4asio9execution12bad_executorC2ERKS1_
_ZNSt7__cxx1112basic_stringIcSt11char_traitsIcESaIcEE13_M_local_dataEv@GLIBCXX_3.4.21
_ZSt4moveIRPNSt6thread6_StateEEONSt16remove_referenceIT_E4typeEOS5_
_ZN4asio10io_context3runEv
_ZN4asio6detail10socket_ops25set_internal_non_blockingEiRhbRSt10error_code
_ZN4asio6detail11executor_opINS0_22executor_function_viewESaIvENS0_19scheduler_operationEED1Ev
_ZN4asio6detail12posix_threadC1INS0_9scheduler15thread_functionEEET_j
_ZNSaINSt7__cxx1112basic_stringIcSt11char_traitsIcESaIcEEEED1Ev
_ZNK4asio6detail27conditionally_enabled_mutex11scoped_lock6lockedEv
_ZN4asio6detail10service_idINS0_14strand_serviceEEC2Ev
_ZN4asio6detail27conditionally_enabled_eventD1Ev
_ZN4asio10io_context4stopEv
_ZN4asio6detail27conditionally_enabled_event27maybe_unlock_and_signal_oneERNS0_27conditionally_enabled_mutex11scoped_lockE
_ZSt11__addressofINSt7__cxx1112basic_stringIcSt11char_traitsIcESaIcEEEEPT_RS6_
_ZN4asio9execution6detail17any_executor_base13query_fn_implIvNS0_11prefer_onlyINS1_12relationship14continuation_tILi0EEEEEEEvPvPKvSB_PNSt9enable_ifIXsrSt7is_sameIT_vE5valueEvE4typeE
_ZN4asio6detail10service_idINS0_13epoll_reactorEEC1Ev
_ZN4asio10io_context4workC1ERS0_
_ZNSt27__uninitialized_default_n_1ILb1EE18__uninit_default_nIPcmEET_S3_T0_
_ZNSt12_Vector_baseIcSaIcEE17_M_create_storageEm
_ZNK4asio9execution12any_executorIJNS0_12context_as_tIRNS_17execution_contextEEENS0_6detail8blocking7never_tILi0EEENS0_11prefer_onlyINS7_10possibly_tILi0EEEEENSA_INS6_16outstanding_work9tracked_tILi0EEEEENSA_INSE_11untracked_tILi0EEEEENSA_INS6_12relationship6fork_tILi0EEEEENSA_INSL_14continuation_tILi0EEEEEEE6preferISC_EESS_RKT_PNSt9enable_ifIXsrNSS_36find_convertible_preferable_propertyISU_EE5valueEvE4typeE
_ZN4asio6detail30execution_context_service_baseINS0_9schedulerEE2idE
_ZGVN4asio6detail30execution_context_service_baseINS0_23reactive_socket_serviceINS_2ip3tcpEEEE2idE
_ZN4asio6detail23reactive_socket_serviceINS_2ip3tcpEEC1ERNS_17execution_contextE
_ZN4asio9execution11allocator_tISaIvEEC2ERKS2_
_ZN4asio6detail11posix_event10signal_allINS0_27conditionally_enabled_mutex11scoped_lockEEEvRT_
_ZNSt15__uniq_ptr_dataINSt6thread6_StateESt14default_deleteIS1_ELb1ELb1EECI2St15__uniq_ptr_implIS1_S3_EEPS1_
memcpy@GLIBC_2.14
_ZNK14asio_prefer_fn4implclIRKN4asio10io_context19basic_executor_typeISaIvELj0EEERKNS2_9execution6detail8blocking7never_tILi0EEEEENSt9enable_ifIXeqsrNS_11call_traitsIT_FvT0_EvEE8overloadLNS_13overload_typeE1EENSL_11result_typeEE4typeEOSI_OSJ_
_ZN4asio6detail10socket_ops20network_to_host_longEj
_ZN4asio2ip10address_v4C2Ev
_ZN4asio5error6detail13misc_categoryD1Ev
_ZNSt6chrono13duration_castINS_8durationIlSt5ratioILl1ELl1000000000EEEElS2_ILl1ELl1000EEEENSt9enable_ifIXsrNS_13__is_durationIT_EE5valueES8_E4typeERKNS1_IT0_T1_EE
_ZSt22__uninitialized_copy_aIPKNSt7__cxx1112basic_stringIcSt11char_traitsIcESaIcEEEPS5_S5_ET0_T_SA_S9_RSaIT1_E
connect@GLIBC_2.2.5
_ZN4asio6detail30execution_context_service_baseINS0_13epoll_reactorEE2idE
_ZN4asio9execution6detail17any_executor_base13query_fn_implINS_10io_context19basic_executor_typeISaIvELj0EEENS0_11prefer_onlyINS1_12relationship6fork_tILi0EEEEEEEvPvPKvSF_PNSt9enable_ifIXntsrSt7is_sameIT_vE5valueEvE4typeE
_ZN4asio17execution_context7service3keyC2Ev
_ZN4asio6detail15throw_exceptionINS_9execution12bad_executorEEEvRKT_
_ZN4asio9execution6detail17any_executor_base16target_fns_tableINS_10io_context19basic_executor_typeISaIvELj0EEEEEPKNS2_10target_fnsEbPNSt9enable_ifIXntsrSt7is_sameIT_vE5valueEvE4typeE
_ZN4asio6detail12posix_thread4funcINS0_9scheduler15thread_functionEED2Ev
_ZN4asio6detail15op_queue_access4nextINS0_19scheduler_operationES3_EEvRPT_PT0_
_ZN4asio9execution6detail17any_executor_base9prefer_fnINS0_12any_executorIJNS0_12context_as_tIRNS_17execution_contextEEENS1_8blocking7never_tILi0EEENS0_11prefer_onlyINS9_10possibly_tILi0EEEEENSC_INS1_16outstanding_work9tracked_tILi0EEEEENSC_INSG_11untracked_tILi0EEEEENSC_INS1_12relationship6fork_tILi0EEEEENSC_INSN_14continuation_tILi0EEEEEEEENS_10io_context19basic_executor_typeISaIvELj4EEES8_EET_PKvS11_
_ZNSt6chrono15duration_valuesIlE4zeroEv
_ZN4asio9execution6detail17any_executor_base15require_fn_implINS0_12any_executorIJNS0_12context_as_tIRNS_17execution_contextEEENS1_8blocking7never_tILi0EEENS0_11prefer_onlyINS9_10possibly_tILi0EEEEENSC_INS1_16outstanding_work9tracked_tILi0EEEEENSC_INSG_11untracked_tILi0EEEEENSC_INS1_12relationship6fork_tILi0EEEEENSC_INSN_14continuation_tILi0EEEEEEEEvSB_EET_PKvSX_PNSt9enable_ifIXsrSt7is_sameIT0_vE5valueEvE4typeE
_ZNSt7__cxx1112basic_stringIcSt11char_traitsIcESaIcEE7_M_dataEPc@GLIBCXX_3.4.21
_ZTVN4asio6detail13epoll_reactorE
_ZN4asio6detail30execution_context_service_baseINS0_9schedulerEED2Ev
_ZNK4asio5error6detail17addrinfo_category4nameEv
_ZNK9__gnu_cxx13new_allocatorIcE8max_sizeEv
_ZNSt15__exception_ptr13exception_ptr10_M_releaseEv@CXXABI_1.3.13
_ZN4asio17execution_contextC2Ev
_ZN4asio6detail15timer_queue_setC1Ev
_ZN4asio6detail16service_registry7destroyEPNS_17execution_context7serviceE
_ZN4asio22service_already_existsD2Ev
_ZZN4asio9execution6detail17any_executor_base16target_fns_tableINS_10io_context19basic_executor_typeISaIvELj4EEEEEPKNS2_10target_fnsEbPNSt9enable_ifIXntsrSt7is_sameIT_vE5valueEvE4typeEE25fns_with_blocking_execute
_ZN4asio9execution6detail20prefer_only_propertyINS1_8blocking10possibly_tILi0EEEvEC2ERKS5_
_ZN4asio2ip3tcpC2Ei
_ZN4asio6detail30execution_context_service_baseINS0_13epoll_reactorEEC1ERNS_17execution_contextE
_ZTVN4asio5error6detail17addrinfo_categoryE
_ZN4asio19asio_handler_invokeINS_6detail17executor_functionEEEvRT_z
_ZTIN4asio6detail15io_context_bitsE
_ZN4asio9execution6detail17any_executor_base13query_fn_implINS_10io_context19basic_executor_typeISaIvELj0EEENS0_12context_as_tIRNS_17execution_contextEEEEEvPvPKvSE_PNSt9enable_ifIXntsrSt7is_sameIT_vE5valueEvE4typeE
_ZNSt6chrono8durationIlSt5ratioILl1ELl1000EEEC2IlS1_ILl1ELl1EEvEERKNS0_IT_T0_EE
_ZTVN4asio6detail9schedulerE
_ZNK13asio_query_fn4implclIRKN4asio10io_context19basic_executor_typeISaIvELj0EEERKNS2_9execution6detail9context_tILi0EEEEENSt9enable_ifIXeqsrNS_11call_traitsIT_FvT0_EvEE8overloadLNS_13overload_typeE1EENSK_11result_typeEE4typeEOSH_OSI_
_ZN4asio6detail8op_queueINS0_19scheduler_operationEE4pushIS2_EEvRNS1_IT_EE
_ZNSt15__exception_ptr13exception_ptrC2Ev
_ZN4asio6detail23get_recycling_allocatorISaIvENS0_16thread_info_base11default_tagEE3getERKS2_
_ZTIN4asio6detail28reactive_socket_service_baseE
_ZN4asio9execution12any_executorIJNS0_12context_as_tIRNS_17execution_contextEEENS0_6detail8blocking7never_tILi0EEENS0_11prefer_onlyINS7_10possibly_tILi0EEEEENSA_INS6_16outstanding_work9tracked_tILi0EEEEENSA_INSE_11untracked_tILi0EEEEENSA_INS6_12relationship6fork_tILi0EEEEENSA_INSL_14continuation_tILi0EEEEEEEC2EOSS_
_ZTSN4asio6detail28reactive_socket_service_baseE
_ZN4asio21invalid_service_ownerC1ERKS0_
_ZGVZN4asio5error17get_misc_categoryEvE8instance
_ZNK4asio5error6detail13misc_category4nameEv
_ZN4asio9execution6detail17any_executor_base8query_fnINS_10io_context19basic_executor_typeISaIvELj0EEENS0_11prefer_onlyINS1_12relationship14continuation_tILi0EEEEEEEvPvPKvSF_
_ZN4asio2ip7addressC1ERKNS0_10address_v4E
__cxa_atexit@GLIBC_2.2.5
_ZN4asio6detail23buffer_sequence_adapterINS_12const_bufferENS_17mutable_buffers_1EE5firstERKS3_
_ZStlsIcSt11char_traitsIcESaIcEERSt13basic_ostreamIT_T0_ES7_RKNSt7__cxx1112basic_stringIS4_S5_T1_EE@GLIBCXX_3.4.21
_ZNSt14__array_traitsIhLm16EE6_S_ptrERA16_Kh
_ZNSt12_Vector_baseINSt7__cxx1112basic_stringIcSt11char_traitsIcESaIcEEESaIS5_EE17_Vector_impl_dataC2Ev
_ZNK13asio_query_fn4implclIRKN4asio10io_context19basic_executor_typeISaIvELj4EEERKNS2_9execution12context_as_tIRNS2_17execution_contextEEEEENSt9enable_ifIXeqsrNS_11call_traitsIT_FvT0_EvEE8overloadLNS_13overload_typeE2EENSL_11result_typeEE4typeEOSI_OSJ_
_ZNSt10_Head_baseILm1ESt14default_deleteINSt6thread6_StateEELb1EEC2Ev
_ZN4asio6detail26eventfd_select_interrupter17close_descriptorsEv
_ZN4asio9execution6detail17any_executor_base8query_fnINS_10io_context19basic_executor_typeISaIvELj4EEENS0_11prefer_onlyINS1_16outstanding_work11untracked_tILi0EEEEEEEvPvPKvSF_
_ZNSt12system_errorC1ERKS_
_ZN4asio6detail28reactive_socket_service_baseC1ERNS_17execution_contextE
_ZTSN4asio6detail30execution_context_service_baseINS0_23reactive_socket_serviceINS_2ip3tcpEEEEE
_ZN4asio9execution6detail17any_executor_base8query_fnINS_10io_context19basic_executor_typeISaIvELj0EEENS0_11prefer_onlyINS1_8blocking10possibly_tILi0EEEEEEEvPvPKvSF_
_ZN4asio6detail11object_poolINS0_13epoll_reactor16descriptor_stateEE12destroy_listEPS3_
pthread_join@GLIBC_2.34
_ZN4asio9execution6detail17any_executor_base13query_fn_implINS_10io_context19basic_executor_typeISaIvELj0EEENS0_11prefer_onlyINS1_16outstanding_work9tracked_tILi0EEEEEEEvPvPKvSF_PNSt9enable_ifIXntsrSt7is_sameIT_vE5valueEvE4typeE
_ZN4asio6detail14io_object_implINS0_23reactive_socket_serviceINS_2ip3tcpEEENS_9execution12any_executorIJNS6_12context_as_tIRNS_17execution_contextEEENS6_6detail8blocking7never_tILi0EEENS6_11prefer_onlyINSD_10possibly_tILi0EEEEENSG_INSC_16outstanding_work9tracked_tILi0EEEEENSG_INSK_11untracked_tILi0EEEEENSG_INSC_12relationship6fork_tILi0EEEEENSG_INSR_14continuation_tILi0EEEEEEEEE18get_implementationEv
_ZTIN4asio5error6detail13misc_categoryE
_ZN4asio6detail11object_poolINS0_13epoll_reactor16descriptor_stateEEC2Ev
_ZNSt9exceptionC2EOS_
_ZTSN4asio6detail12posix_thread4funcINS0_9scheduler15thread_functionEEE
_ZN4asio6detail10socket_ops10sync_send1EihPKvmiRSt10error_code
_ZNSt6thread15_M_start_threadESt10unique_ptrINS_6_StateESt14default_deleteIS1_EEPFvvE@GLIBCXX_3.4.22
_ZN4asio6detail27conditionally_enabled_mutexD2Ev
_ZNK13asio_query_fn4implclIRKN4asio10io_context19basic_executor_typeISaIvELj4EEERKNS2_9execution6detail8blocking10possibly_tILi0EEEEENSt9enable_ifIXeqsrNS_11call_traitsIT_FvT0_EvEE8overloadLNS_13overload_typeE1EENSL_11result_typeEE4typeEOSI_OSJ_
_ZTSN4asio6detail11noncopyableE
_ZNSt7__cxx1112basic_stringIcSt11char_traitsIcESaIcEE12_Alloc_hiderD1Ev
_ZN4asio9execution6detail17any_executor_base8query_fnINS_10io_context19basic_executor_typeISaIvELj0EEENS0_11prefer_onlyINS1_16outstanding_work9tracked_tILi0EEEEEEEvPvPKvSF_
_ZNSt12_Vector_baseINSt7__cxx1112basic_stringIcSt11char_traitsIcESaIcEEESaIS5_EED2Ev
_ZN4asio9execution6detail17any_executor_base16construct_objectINS_10io_context19basic_executor_typeISaIvELj4EEEEEvRT_St17integral_constantIbLb1EE
__cxa_init_primary_exception@CXXABI_1.3.11
_ZNSt9exceptionC1Ev
_ZN4asio9execution6detail17any_executor_base10execute_exINS_10io_context19basic_executor_typeISaIvELj4EEEEEvRKS2_ONS_6detail17executor_functionE
_ZN4asio6detail13epoll_reactor11get_timeoutEi
_ZNSt11_Tuple_implILm0EJPNSt6thread6_StateESt14default_deleteIS1_EEEC1Ev
_ZN4asio6detail8op_queueINS0_19scheduler_operationEEC1Ev
_ZN4asio9execution6detail17any_executor_base14destroy_objectINS_10io_context19basic_executor_typeISaIvELj0EEEEEvRS2_
_ZN4asio9execution11prefer_onlyINS0_6detail16outstanding_work9tracked_tILi0EEEEC1ERKS5_
_ZN4asio6detail10service_idINS0_13epoll_reactorEEC2Ev
_ZN4asio6detail10call_stackINS0_14thread_contextENS0_16thread_info_baseEE4top_E
_ZTVN4asio6detail15system_categoryE
_ZN4asio6detail26eventfd_select_interrupterC1Ev
_ZNK4asio10io_context19basic_executor_typeISaIvELj0EE7requireENS_9execution6detail8blocking7never_tILi0EEE
_ZTIN4asio6detail30execution_context_service_baseINS0_13epoll_reactorEEE
_ZN4asio6detail8op_queueINS0_10reactor_opEEC2Ev
_ZTSN4asio9execution12bad_executorE
_ZN4asio9execution5queryINS_10io_context19basic_executor_typeISaIvELj0EEENS0_6detail12relationship14continuation_tILi0EEEEENS_12query_resultIRKT_RKS9_E4typeESD_RKNS0_11prefer_onlyIT0_EEPNSt9enable_ifIXaasrSt7is_sameISJ_S9_E5valuesrNS_9can_queryISD_SF_EE5valueEvE4typeE
_ZTIN4asio21invalid_service_ownerE
_ZN4asio9execution6detail17any_executor_base9prefer_fnINS0_12any_executorIJNS0_12context_as_tIRNS_17execution_contextEEENS1_8blocking7never_tILi0EEENS0_11prefer_onlyINS9_10possibly_tILi0EEEEENSC_INS1_16outstanding_work9tracked_tILi0EEEEENSC_INSG_11untracked_tILi0EEEEENSC_INS1_12relationship6fork_tILi0EEEEENSC_INSN_14continuation_tILi0EEEEEEEENS_10io_context19basic_executor_typeISaIvELj0EEESB_EET_PKvS11_
_ZN4asio6detail10service_idINS0_9schedulerEEC1Ev
_ZN4asio2ip10address_v6C2Ev
_ZN4asio17mutable_buffers_1C2EPvm
_ZN4asio9execution6detail17any_executor_base8query_fnINS_10io_context19basic_executor_typeISaIvELj0EEENS1_8blocking7never_tILi0EEEEEvPvPKvSD_
_ZN4asio6detail11executor_opINS0_22executor_function_viewESaIvENS0_19scheduler_operationEEC1IRS2_EEOT_RKS3_
_ZdlPv@GLIBCXX_3.4
_ZN4asio6detail12posix_thread9func_baseC1Ev
_ZN4asio6detail10reactor_opC1ERKSt10error_codePFNS1_6statusEPS1_EPFvPvPNS0_19scheduler_operationES4_mE
_ZN4asio6detail15keyword_tss_ptrINS0_10call_stackINS0_23strand_executor_service11strand_implEhE7contextEEC2Ev
_ZSt8__fill_aIPccEvT_S1_RKT0_
_ZN4asio9execution6detail17any_executor_base13query_fn_implINS_10io_context19basic_executor_typeISaIvELj4EEENS0_11prefer_onlyINS1_16outstanding_work9tracked_tILi0EEEEEEEvPvPKvSF_PNSt9enable_ifIXntsrSt7is_sameIT_vE5valueEvE4typeE
_ZN4asio6detail10call_stackINS0_23strand_executor_service11strand_implEhE4top_E
_ZN4asio6detail11executor_opINS0_22executor_function_viewESaIvENS0_19scheduler_operationEE3ptrD2Ev
_ZTSN4asio19multiple_exceptionsE
_ZN4asio6detail13epoll_reactor21free_descriptor_stateEPNS1_16descriptor_stateE
_ZN4asio9execution6detail17any_executor_base14query_blockingINS_10io_context19basic_executor_typeISaIvELj0EEEEENS1_10blocking_tILi0EEERKT_St17integral_constantIbLb1EE
_ZN4asio9execution6detail17any_executor_base13query_fn_voidEPvPKvS5_
_ZN4asio9execution6detail17any_executor_baseD1Ev
_ZN4asio10io_context19basic_executor_typeISaIvELj0EEC2ERKS3_
_ZN4asio11socket_baseD1Ev
_ZN4asio9execution6detail17any_executor_base17query_fn_non_voidINS_10io_context19basic_executor_typeISaIvELj4EEENS0_11prefer_onlyINS1_8blocking10possibly_tILi0EEEEEEEvPvPKvSF_PNSt9enable_ifIXaaaaaasrNS_9can_queryIRKT_RKT0_EE5valuentsrSt7is_sameINSL_29polymorphic_query_result_typeEvE5valuentsrSt12is_referenceISQ_E5valuentsrSt9is_scalarISQ_E5valueEvE4typeE
_ZN4asio6detail13epoll_reactor19register_descriptorEiRPNS1_16descriptor_stateE
_ZSt4moveIRNSt7__cxx1112basic_stringIcSt11char_traitsIcESaIcEEEEONSt16remove_referenceIT_E4typeEOS8_
_ZNK4asio6detail15keyword_tss_ptrINS0_10call_stackINS0_14thread_contextENS0_16thread_info_baseEE7contextEEcvPS6_Ev
_ZNSt15__exception_ptr13exception_ptr4swapERS0_
_ZNSt15__uniq_ptr_implINSt6thread6_StateESt14default_deleteIS1_EEC2EPS1_
_ZNSt12system_errorC2ERKS_
_ZN4asio6detail26eventfd_select_interrupter8recreateEv
_ZN4asio12basic_socketINS_2ip3tcpENS_9execution12any_executorIJNS3_12context_as_tIRNS_17execution_contextEEENS3_6detail8blocking7never_tILi0EEENS3_11prefer_onlyINSA_10possibly_tILi0EEEEENSD_INS9_16outstanding_work9tracked_tILi0EEEEENSD_INSH_11untracked_tILi0EEEEENSD_INS9_12relationship6fork_tILi0EEEEENSD_INSO_14continuation_tILi0EEEEEEEEED1Ev
_ZN4asio9execution6detail17any_executor_base14prefer_fn_implINS0_12any_executorIJNS0_12context_as_tIRNS_17execution_contextEEENS1_8blocking7never_tILi0EEENS0_11prefer_onlyINS9_10possibly_tILi0EEEEENSC_INS1_16outstanding_work9tracked_tILi0EEEEENSC_INSG_11untracked_tILi0EEEEENSC_INS1_12relationship6fork_tILi0EEEEENSC_INSN_14continuation_tILi0EEEEEEEENS_10io_context19basic_executor_typeISaIvELj4EEEST_EET_PKvS11_PNSt9enable_ifIXaantsrSt7is_sameIT0_vE5valuesrT1_13is_preferableEvE4typeE
_ZNSt6vectorIcSaIcEE11_S_max_sizeERKS0_
_ZN4asio2ip10address_v4C1Ev
_ZN4asio9execution6detail17any_executor_base17query_fn_non_voidINS_10io_context19basic_executor_typeISaIvELj4EEENS1_8blocking7never_tILi0EEEEEvPvPKvSD_PNSt9enable_ifIXaaaaaasrNS_9can_queryIRKT_RKT0_EE5valuentsrSt7is_sameINSJ_29polymorphic_query_result_typeEvE5valuentsrSt12is_referenceISO_E5valuentsrSt9is_scalarISO_E5valueEvE4typeE
_ZNSt11_Tuple_implILm0EJPNSt6thread6_StateESt14default_deleteIS1_EEE7_M_headERS5_
_ZN4asio6detail13epoll_reactor9interruptEv
_ZStlsISt11char_traitsIcEERSt13basic_ostreamIcT_ES5_PKc@GLIBCXX_3.4
_ZNK13asio_query_fn4implclIRKN4asio10io_context19basic_executor_typeISaIvELj0EEERKNS2_9execution11prefer_onlyINS9_6detail12relationship14continuation_tILi0EEEEEEENSt9enable_ifIXeqsrNS_11call_traitsIT_FvT0_EvEE8overloadLNS_13overload_typeE2EENSN_11result_typeEE4typeEOSK_OSL_
_ZNK4asio10io_context19basic_executor_typeISaIvELj0EE5queryENS_9execution6detail9context_tILi0EEE
_ZN4asio6detail10socket_ops5send1EiPKvmiRSt10error_code
_ZNK4asio10io_context19basic_executor_typeISaIvELj0EE7requireENS_9execution6detail12relationship6fork_tILi0EEE
_ZN4asio6detail16service_registry16auto_service_ptrD1Ev
_Znwm@GLIBCXX_3.4
_ZZN4asio15system_categoryEvE8instance
_ZN4asio12const_bufferC2ERKNS_14mutable_bufferE
_ZTVN4asio5error6detail14netdb_categoryE
_ZN4asio6detail10null_event4waitINS0_27conditionally_enabled_mutex11scoped_lockEEEvRT_
_ZN4asio6detail28reactive_socket_recv_op_baseINS_17mutable_buffers_1EED2Ev
_ZN4asio6detail11noncopyableC1Ev
_ZN4asio9execution6detail17any_executor_base10require_fnINS0_12any_executorIJNS0_12context_as_tIRNS_17execution_contextEEENS1_8blocking7never_tILi0EEENS0_11prefer_onlyINS9_10possibly_tILi0EEEEENSC_INS1_16outstanding_work9tracked_tILi0EEEEENSC_INSG_11untracked_tILi0EEEEENSC_INS1_12relationship6fork_tILi0EEEEENSC_INSN_14continuation_tILi0EEEEEEEENS_10io_context19basic_executor_typeISaIvELj0EEESQ_EET_PKvS11_
_ZN4asio6detail10reactor_op7performEv
_ZN4asio6detail8op_queueINS0_10reactor_opEED2Ev
_ZN4asio6detail10call_stackINS0_14strand_service11strand_implEhE4top_E
_ZNSt6atomicIlEC2El
_ZN4asio6detail15throw_exceptionINS_21invalid_service_ownerEEEvRKT_
_ZN4asio10io_contextD1Ev
_ZdlPvm@CXXABI_1.3.9
_ZN4asio6detail20posix_signal_blockerD1Ev
_ZZN4asio6detail13epoll_reactor16descriptor_state10perform_ioEjE4flag
_ZN4asio2ip14basic_endpointINS0_3tcpEEC1Ev
_ZSt17rethrow_exceptionNSt15__exception_ptr13exception_ptrE@CXXABI_1.3.3
_ZTIv@CXXABI_1.3
_ZN4asio6detail16service_registry11add_serviceINS0_9schedulerEEEvPT_
_ZTVN4asio6detail23reactive_socket_serviceINS_2ip3tcpEEE
_ZTSN4asio10io_context19basic_executor_typeISaIvELj4EEE
_ZN4asio9execution12bad_executorD1Ev
_ZN4asio6detail21scheduler_thread_infoD2Ev
_ZN4asio9execution6detail17any_executor_baseC2INS_10io_context19basic_executor_typeISaIvELj0EEEEET_St17integral_constantIbLb0EE
_ZN4asio6detail13epoll_reactor11notify_forkENS_17execution_context10fork_eventE
_ZN4asio6detail13epoll_reactor32perform_io_cleanup_on_block_exitD1Ev
_ZN4asio6detail16std_fenced_blockC2ENS1_6full_tE
_ZNSt15__exception_ptr13exception_ptrC2ERKS0_
_ZNK14asio_prefer_fn4implclIRKN4asio10io_context19basic_executor_typeISaIvELj0EEERKNS2_9execution11prefer_onlyINS9_6detail16outstanding_work11untracked_tILi0EEEEEEENSt9enable_ifIXeqsrNS_11call_traitsIT_FvT0_EvEE8overloadLNS_13overload_typeE4EENSN_11result_typeEE4typeEOSK_OSL_
_ZN4asio6detail10socket_ops7connectEiPK8sockaddrmRSt10error_code
_ZN4asio9execution6detail17any_executor_base17query_fn_non_voidINS_10io_context19basic_executor_typeISaIvELj4EEENS0_11prefer_onlyINS1_16outstanding_work11untracked_tILi0EEEEEEEvPvPKvSF_PNSt9enable_ifIXaaaaaasrNS_9can_queryIRKT_RKT0_EE5valuentsrSt7is_sameINSL_29polymorphic_query_result_typeEvE5valuentsrSt12is_referenceISQ_E5valuentsrSt9is_scalarISQ_E5valueEvE4typeE
_ZNSolsEPFRSoS_E@GLIBCXX_3.4
_ZNK4asio2ip10address_v68to_bytesEv
_ZNSt7__cxx1112basic_stringIcSt11char_traitsIcESaIcEE12_Alloc_hiderC1EPcRKS3_@GLIBCXX_3.4.21
_ZN4asio6detail10socket_ops20host_to_network_longEj
_ZN4asio15system_categoryEv
_ZGVZN4asio5error21get_addrinfo_categoryEvE8instance
_ZN4asio9execution6detail17any_executor_base9prefer_fnINS0_12any_executorIJNS0_12context_as_tIRNS_17execution_contextEEENS1_8blocking7never_tILi0EEENS0_11prefer_onlyINS9_10possibly_tILi0EEEEENSC_INS1_16outstanding_work9tracked_tILi0EEEEENSC_INSG_11untracked_tILi0EEEEENSC_INS1_12relationship6fork_tILi0EEEEENSC_INSN_14continuation_tILi0EEEEEEEEvSB_EET_PKvSX_
_ZN15asio_require_fn15static_instanceINS_4implEE8instanceE
_ZN4asio9execution12any_executorIJNS0_12context_as_tIRNS_17execution_contextEEENS0_6detail8blocking7never_tILi0EEENS0_11prefer_onlyINS7_10possibly_tILi0EEEEENSA_INS6_16outstanding_work9tracked_tILi0EEEEENSA_INSE_11untracked_tILi0EEEEENSA_INS6_12relationship6fork_tILi0EEEEENSA_INSL_14continuation_tILi0EEEEEEEC2INS_10io_context19basic_executor_typeISaIvELj4EEEEET_PNSt9enable_ifIXsrNSt11conditionalIXaantsrSt7is_sameISY_SS_E5valuentsrSt10is_base_ofINS6_17any_executor_baseESY_E5valueENS6_24is_valid_target_executorISY_FvS5_S9_SD_SH_SK_SO_SR_EEESt17integral_constantIbLb0EEE4typeE5valueEvE4typeE
_ZN4asio6detail30execution_context_service_baseINS0_23reactive_socket_serviceINS_2ip3tcpEEEE2idE
_ZNSt7__cxx1112basic_stringIcSt11char_traitsIcESaIcEE12_Alloc_hiderD2Ev
_ZNK25asio_execution_execute_fn4implclIRKN4asio10io_context19basic_executor_typeISaIvELj4EEENS2_6detail17executor_functionEEENSt9enable_ifIXeqsrNS_11call_traitsIT_FvT0_EvEE8overloadLNS_13overload_typeE0EENSG_11result_typeEE4typeEOSD_OSE_
_ZN4asio6detail9schedulerD0Ev
_ZNK25asio_execution_execute_fn4implclIRKN4asio10io_context19basic_executor_typeISaIvELj4EEERNS2_6detail22executor_function_viewEEENSt9enable_ifIXeqsrNS_11call_traitsIT_FvT0_EvEE8overloadLNS_13overload_typeE0EENSH_11result_typeEE4typeEOSE_OSF_
_ZN4asio6detail15timer_queue_set16get_ready_timersERNS0_8op_queueINS0_19scheduler_operationEEE
_ZN4asio9execution6detail17any_executor_base15require_fn_implINS0_12any_executorIJNS0_12context_as_tIRNS_17execution_contextEEENS1_8blocking7never_tILi0EEENS0_11prefer_onlyINS9_10possibly_tILi0EEEEENSC_INS1_16outstanding_work9tracked_tILi0EEEEENSC_INSG_11untracked_tILi0EEEEENSC_INS1_12relationship6fork_tILi0EEEEENSC_INSN_14continuation_tILi0EEEEEEEENS_10io_context19basic_executor_typeISaIvELj4EEESQ_EET_PKvS11_z
_ZN4asio6detail28reactive_socket_recv_op_baseINS_17mutable_buffers_1EE10do_performEPNS0_10reactor_opE
_ZNSt16allocator_traitsISaINSt7__cxx1112basic_stringIcSt11char_traitsIcESaIcEEEEE8allocateERS6_m
_ZNSt16allocator_traitsISaIcEE8max_sizeERKS0_
_ZN4asio9execution5queryINS_10io_context19basic_executor_typeISaIvELj4EEERNS_17execution_contextEEET0_RKT_RKNS0_12context_as_tIS8_EEPNSt9enable_ifIXaasrSt7is_sameIS7_S8_E5valuesrNS_9can_queryISB_RKNS0_6detail9context_tILi0EEEEE5valueEvE4typeE
_ZN9__gnu_cxx11char_traitsIcE6lengthEPKc
_ZNSt8bad_castC1Ev
_ZN4asio2ip16bad_address_castD2Ev
_ZN4asio6detail10scoped_ptrINS0_9schedulerEE7releaseEv
_ZN4asio5error6detail13misc_categoryD0Ev
_ZNSaIcED1Ev@GLIBCXX_3.4
_ZN4asio6detail14io_object_implINS0_23reactive_socket_serviceINS_2ip3tcpEEENS_9execution12any_executorIJNS6_12context_as_tIRNS_17execution_contextEEENS6_6detail8blocking7never_tILi0EEENS6_11prefer_onlyINSD_10possibly_tILi0EEEEENSG_INSC_16outstanding_work9tracked_tILi0EEEEENSG_INSK_11untracked_tILi0EEEEENSG_INSC_12relationship6fork_tILi0EEEEENSG_INSR_14continuation_tILi0EEEEEEEEE11get_serviceEv
_ZN9__gnu_cxx13new_allocatorINSt7__cxx1112basic_stringIcSt11char_traitsIcESaIcEEEEC2Ev
_ZNSt10unique_ptrINSt6thread6_StateESt14default_deleteIS1_EEC1IS3_vEEPS1_
_ZNSt12_Vector_baseINSt7__cxx1112basic_stringIcSt11char_traitsIcESaIcEEESaIS5_EE12_Vector_implD2Ev
_ZNSt12system_errorD1Ev@GLIBCXX_3.4.11
_ZN4asio9execution6detail17any_executor_base19blocking_execute_exINS_10io_context19basic_executor_typeISaIvELj0EEEEEvRKS2_NS_6detail22executor_function_viewE
_ZN4asio10io_context19basic_executor_typeISaIvELj4EEC1ERKS3_
_ZNSt12_Vector_baseIcSaIcEE19_M_get_Tp_allocatorEv
_ZN4asio6detail13epoll_reactor15do_epoll_createEv
_ZNKSt7__cxx1112basic_stringIcSt11char_traitsIcESaIcEE7_M_dataEv@GLIBCXX_3.4.21
_ZNK14asio_prefer_fn4implclIRKN4asio10io_context19basic_executor_typeISaIvELj0EEERKNS2_9execution6detail8blocking10possibly_tILi0EEEEENSt9enable_ifIXeqsrNS_11call_traitsIT_FvT0_EvEE8overloadLNS_13overload_typeE1EENSL_11result_typeEE4typeEOSI_OSJ_
_ZN4asio6detail16thread_info_base10deallocateINS1_21executor_function_tagEEEvT_PS1_Pvm
_ZSt12__get_helperILm0EPNSt6thread6_StateEJSt14default_deleteIS1_EEERT0_RSt11_Tuple_implIXT_EJS5_DpT1_EE
_ZN4asio6detail17handler_work_baseINS_9execution12any_executorIJNS2_12context_as_tIRNS_17execution_contextEEENS2_6detail8blocking7never_tILi0EEENS2_11prefer_onlyINS9_10possibly_tILi0EEEEENSC_INS8_16outstanding_work9tracked_tILi0EEEEENSC_INSG_11untracked_tILi0EEEEENSC_INS8_12relationship6fork_tILi0EEEEENSC_INSN_14continuation_tILi0EEEEEEEEvNS_10io_contextENS_8executorEvEC2EOSX_
_ZNSt12system_errorC1ESt10error_codePKc
_ZSt17current_exceptionv@CXXABI_1.3.3
_ZN4asio21invalid_service_ownerD2Ev
_ZN4asio6detail10null_event7do_waitEv
_ZN4asio6detail15keyword_tss_ptrINS0_10call_stackINS0_14thread_contextENS0_16thread_info_baseEE7contextEE6value_E
_ZN4asio9execution6detail10blocking_tILi0EE8possiblyE
_ZN4asio6detail10service_idINS0_9schedulerEEC2Ev
_ZN4asio6detail15throw_exceptionINS_22service_already_existsEEEvRKT_
_ZN4asio2ip6detail8endpointC2ERKNS0_7addressEt
_ZNSt7__cxx1112basic_stringIcSt11char_traitsIcESaIcEE13_S_copy_charsEPcPKcS7_@GLIBCXX_3.4.21
_ZN4asio6detail13epoll_reactor3runElRNS0_8op_queueINS0_19scheduler_operationEEE
_ZN4asio9execution12bad_executorC1ERKS1_
_ZN4asio9execution6detail17any_executor_base21blocking_execute_voidERKS2_NS_6detail22executor_function_viewE
__stack_chk_fail@GLIBC_2.4
_ZNK4asio10io_context19basic_executor_typeISaIvELj0EE7executeIRNS_6detail22executor_function_viewEEEvOT_
_ZN4asio6detail18object_pool_access4nextINS0_13epoll_reactor16descriptor_stateEEERPT_S6_
_init
_ZNSt8bad_castC2Ev
_ZN4asio6detail10socket_ops15call_setsockoptIjEEiM6msghdrT_iiiPKvm
_ZNK13asio_query_fn4implclIRKN4asio10io_context19basic_executor_typeISaIvELj0EEERKNS2_9execution6detail8blocking7never_tILi0EEEEENSt9enable_ifIXeqsrNS_11call_traitsIT_FvT0_EvEE8overloadLNS_13overload_typeE1EENSL_11result_typeEE4typeEOSI_OSJ_
_ZNK13asio_query_fn4implclIRKN4asio10io_context19basic_executor_typeISaIvELj4EEERKNS2_9execution6detail9context_tILi0EEEEENSt9enable_ifIXeqsrNS_11call_traitsIT_FvT0_EvEE8overloadLNS_13overload_typeE1EENSK_11result_typeEE4typeEOSH_OSI_
_ZN4asio22service_already_existsC1Ev
_ZN4asio6detail30execution_context_service_baseINS0_13epoll_reactorEED2Ev
_ZN4asio9execution6detail17any_executor_base15require_fn_implINS0_12any_executorIJNS0_12context_as_tIRNS_17execution_contextEEENS1_8blocking7never_tILi0EEENS0_11prefer_onlyINS9_10possibly_tILi0EEEEENSC_INS1_16outstanding_work9tracked_tILi0EEEEENSC_INSG_11untracked_tILi0EEEEENSC_INS1_12relationship6fork_tILi0EEEEENSC_INSN_14continuation_tILi0EEEEEEEENS_10io_context19basic_executor_typeISaIvELj4EEES8_EET_PKvS11_z
_ZN4asio9execution6detail17any_executor_base15require_fn_implINS0_12any_executorIJNS0_12context_as_tIRNS_17execution_contextEEENS1_8blocking7never_tILi0EEENS0_11prefer_onlyINS9_10possibly_tILi0EEEEENSC_INS1_16outstanding_work9tracked_tILi0EEEEENSC_INSG_11untracked_tILi0EEEEENSC_INS1_12relationship6fork_tILi0EEEEENSC_INSN_14continuation_tILi0EEEEEEEEvSQ_EET_PKvSX_PNSt9enable_ifIXsrSt7is_sameIT0_vE5valueEvE4typeE
_ZN4asio6detail13epoll_reactorC2ERNS_17execution_contextE
_ZN4asio9execution6detail17any_executor_base9prefer_fnINS0_12any_executorIJNS0_12context_as_tIRNS_17execution_contextEEENS1_8blocking7never_tILi0EEENS0_11prefer_onlyINS9_10possibly_tILi0EEEEENSC_INS1_16outstanding_work9tracked_tILi0EEEEENSC_INSG_11untracked_tILi0EEEEENSC_INS1_12relationship6fork_tILi0EEEEENSC_INSN_14continuation_tILi0EEEEEEEENS_10io_context19basic_executor_typeISaIvELj0EEEST_EET_PKvS11_
_ZGVZN4asio15system_categoryEvE8instance
_ZN4asio6detail10service_idINS0_23reactive_socket_serviceINS_2ip3tcpEEEED1Ev
_ZN4asio6detail9scheduler15thread_functionC1EPS1_
_ZSt18uninitialized_copyIPKNSt7__cxx1112basic_stringIcSt11char_traitsIcESaIcEEEPS5_ET0_T_SA_S9_
_ZN4asio6detail11noncopyableD1Ev
__TMC_END__
_ZN4asio6detail27conditionally_enabled_mutexC1Eb
_ZN4asio9execution6detail17any_executor_base10require_fnINS0_12any_executorIJNS0_12context_as_tIRNS_17execution_contextEEENS1_8blocking7never_tILi0EEENS0_11prefer_onlyINS9_10possibly_tILi0EEEEENSC_INS1_16outstanding_work9tracked_tILi0EEEEENSC_INSG_11untracked_tILi0EEEEENSC_INS1_12relationship6fork_tILi0EEEEENSC_INSN_14continuation_tILi0EEEEEEEEvSQ_EET_PKvSX_
_ZN4asio17execution_context7serviceC1ERS0_
_ZN4asio2ip3tcp2v6Ev
_ZN4asio9execution6detail17any_executor_base15require_fn_implINS0_12any_executorIJNS0_12context_as_tIRNS_17execution_contextEEENS1_8blocking7never_tILi0EEENS0_11prefer_onlyINS9_10possibly_tILi0EEEEENSC_INS1_16outstanding_work9tracked_tILi0EEEEENSC_INSG_11untracked_tILi0EEEEENSC_INS1_12relationship6fork_tILi0EEEEENSC_INSN_14continuation_tILi0EEEEEEEENS_10io_context19basic_executor_typeISaIvELj0EEESF_EET_PKvS11_z
_ZN4asio6detail11posix_eventD1Ev
_ZN4asio6detail22executor_function_viewclEv
_ZSt3getILm0EJPNSt6thread6_StateESt14default_deleteIS1_EEERNSt13tuple_elementIXT_ESt5tupleIJDpT0_EEE4typeERS9_
_ZN4asio9execution6detail17any_executor_base16object_fns_tableIvEEPKNS2_10object_fnsEPNSt9enable_ifIXsrSt7is_sameIT_vE5valueEvE4typeE
_ZNK4asio9execution12bad_executor4whatEv
_ZNSt6vectorIcSaIcEEixEm
_ZN4asio19multiple_exceptionsC1EOS0_
_ZNSaINSt7__cxx1112basic_stringIcSt11char_traitsIcESaIcEEEEC1ERKS5_
_ZZN4asio9execution6detail17any_executor_base16target_fns_tableINS_10io_context19basic_executor_typeISaIvELj4EEEEEPKNS2_10target_fnsEbPNSt9enable_ifIXntsrSt7is_sameIT_vE5valueEvE4typeEE16fns_with_execute
_ZN4asio6detail16thread_info_baseD2Ev
_ZTIN4asio2ip16bad_address_castE
pthread_mutex_destroy@GLIBC_2.2.5
_ZN4asio9execution6detail17any_executor_base9prefer_fnINS0_12any_executorIJNS0_12context_as_tIRNS_17execution_contextEEENS1_8blocking7never_tILi0EEENS0_11prefer_onlyINS9_10possibly_tILi0EEEEENSC_INS1_16outstanding_work9tracked_tILi0EEEEENSC_INSG_11untracked_tILi0EEEEENSC_INS1_12relationship6fork_tILi0EEEEENSC_INSN_14continuation_tILi0EEEEEEEEvSJ_EET_PKvSX_
_ZNSt11logic_errorC2EPKc@GLIBCXX_3.4.21
_ZN4asio9execution6preferINS_10io_context19basic_executor_typeISaIvELj4EEENS0_6detail16outstanding_work9tracked_tILi0EEEEENS_13prefer_resultIRKT_JRKS9_EE4typeESD_RKNS0_11prefer_onlyIT0_EEPNSt9enable_ifIXaasrSt7is_sameISJ_S9_E5valuesrNS_10can_preferISD_JSF_EEE5valueEvE4typeE
_ZN4asio11socket_baseD2Ev
_ZNK4asio9execution6detail17any_executor_base6targetINS_10io_context19basic_executor_typeISaIvELj4EEEEEPKT_v
_ZNK4asio6detail28reactive_socket_service_base7is_openERKNS1_24base_implementation_typeE
_ZNSt12_Vector_baseINSt7__cxx1112basic_stringIcSt11char_traitsIcESaIcEEESaIS5_EE11_M_allocateEm
_ZN4asio9execution6detail17any_executor_base13query_fn_implINS_10io_context19basic_executor_typeISaIvELj0EEENS0_11prefer_onlyINS1_8blocking10possibly_tILi0EEEEEEEvPvPKvSF_PNSt9enable_ifIXntsrSt7is_sameIT_vE5valueEvE4typeE
_ZN4asio10io_context19basic_executor_typeISaIvELj0EEC2EPS0_RKS2_j
_ZNSt6vectorINSt7__cxx1112basic_stringIcSt11char_traitsIcESaIcEEESaIS5_EEC1ESt16initializer_listIS5_ERKS6_
_ZTINSt3_V214error_categoryE@GLIBCXX_3.4.21
_ZNK14asio_prefer_fn4implclIRKN4asio10io_context19basic_executor_typeISaIvELj4EEERKNS2_9execution11prefer_onlyINS9_6detail12relationship14continuation_tILi0EEEEEEENSt9enable_ifIXeqsrNS_11call_traitsIT_FvT0_EvEE8overloadLNS_13overload_typeE4EENSN_11result_typeEE4typeEOSK_OSL_
_ZN4asio19multiple_exceptionsC2ENSt15__exception_ptr13exception_ptrE
_ZN4asio5error6detail13misc_categoryD2Ev
_ZN4asio9execution6detail17any_executor_base13query_fn_implINS_10io_context19basic_executor_typeISaIvELj0EEENS1_8blocking7never_tILi0EEEEEvPvPKvSD_PNSt9enable_ifIXntsrSt7is_sameIT_vE5valueEvE4typeE
_ZN4asio6detail16service_registry14do_add_serviceERKNS_17execution_context7service3keyEPS3_
_ZN4asio6detail10service_idINS0_14strand_serviceEEC1Ev
_ZN4asio9execution5queryINS_10io_context19basic_executor_typeISaIvELj4EEENS0_6detail12relationship6fork_tILi0EEEEENS_12query_resultIRKT_RKS9_E4typeESD_RKNS0_11prefer_onlyIT0_EEPNSt9enable_ifIXaasrSt7is_sameISJ_S9_E5valuesrNS_9can_queryISD_SF_EE5valueEvE4typeE
_ZNSt6chrono13duration_castINS_8durationIlSt5ratioILl1ELl1000EEEElS2_ILl1ELl1EEEENSt9enable_ifIXsrNS_13__is_durationIT_EE5valueES8_E4typeERKNS1_IT0_T1_EE
_ZN4asio9execution6detail17any_executor_base14prefer_fn_implINS0_12any_executorIJNS0_12context_as_tIRNS_17execution_contextEEENS1_8blocking7never_tILi0EEENS0_11prefer_onlyINS9_10possibly_tILi0EEEEENSC_INS1_16outstanding_work9tracked_tILi0EEEEENSC_INSG_11untracked_tILi0EEEEENSC_INS1_12relationship6fork_tILi0EEEEENSC_INSN_14continuation_tILi0EEEEEEEENS_10io_context19basic_executor_typeISaIvELj0EEESJ_EET_PKvS11_PNSt9enable_ifIXaantsrSt7is_sameIT0_vE5valuesrT1_13is_preferableEvE4typeE
_ZNK4asio10io_context19basic_executor_typeISaIvELj0EE5queryENS_9execution6detail14relationship_tILi0EEE
_ZN4asio6detail15keyword_tss_ptrINS0_10call_stackINS0_14thread_contextENS0_16thread_info_baseEE7contextEEC2Ev
_ZTVSt9exception@GLIBCXX_3.4
_ZNK4asio10io_context19basic_executor_typeISaIvELj0EE7requireENS_9execution6detail16outstanding_work9tracked_tILi0EEE
_ZN4asio6detail27conditionally_enabled_eventD2Ev
_ZNK14asio_prefer_fn4implclIRKN4asio10io_context19basic_executor_typeISaIvELj0EEERKNS2_9execution11prefer_onlyINS9_6detail12relationship14continuation_tILi0EEEEEEENSt9enable_ifIXeqsrNS_11call_traitsIT_FvT0_EvEE8overloadLNS_13overload_typeE4EENSN_11result_typeEE4typeEOSK_OSL_
_ZTSN4asio5error6detail14netdb_categoryE
_ZN4asio6detail27conditionally_enabled_event5clearERNS0_27conditionally_enabled_mutex11scoped_lockE
_ZNSt16allocator_traitsISaIcEE10deallocateERS0_Pcm
_ZNSt13__atomic_baseIlEC1El
_ZNK13asio_query_fn4implclIRKN4asio10io_context19basic_executor_typeISaIvELj4EEERKNS2_9execution11prefer_onlyINS9_6detail12relationship6fork_tILi0EEEEEEENSt9enable_ifIXeqsrNS_11call_traitsIT_FvT0_EvEE8overloadLNS_13overload_typeE2EENSN_11result_typeEE4typeEOSK_OSL_
pthread_cond_init@GLIBC_2.3.2
_ZN4asio9execution6detail17any_executor_base12destroy_voidERS2_
_ZN4asio19basic_stream_socketINS_2ip3tcpENS_9execution12any_executorIJNS3_12context_as_tIRNS_17execution_contextEEENS3_6detail8blocking7never_tILi0EEENS3_11prefer_onlyINSA_10possibly_tILi0EEEEENSD_INS9_16outstanding_work9tracked_tILi0EEEEENSD_INSH_11untracked_tILi0EEEEENSD_INS9_12relationship6fork_tILi0EEEEENSD_INSO_14continuation_tILi0EEEEEEEEE22initiate_async_receiveC2EPSW_
getenv@GLIBC_2.2.5
_ZGVZN4asio5error18get_netdb_categoryEvE8instance
_ZNK4asio9execution6detail17any_executor_base6objectINS_10io_context19basic_executor_typeISaIvELj0EEEEERKT_v
_ZN4asio2ip12make_addressEPKcRSt10error_code
_ZNK4asio2ip3tcp8protocolEv
_ZN4asio6detail7tss_ptrINS0_10call_stackINS0_14strand_service11strand_implEhE7contextEEC2Ev
_ZN4asio6detail21scheduler_thread_infoC2Ev
_ZNSt10error_codeC2Ev
_ZN4asio9execution6detail17any_executor_base16target_type_voidEv
_ZNSt7__cxx1112basic_stringIcSt11char_traitsIcESaIcEE10_M_disposeEv@GLIBCXX_3.4.21
_ZN4asio6detail11posix_eventC2Ev
_ZN4asio9execution6detail17any_executor_base10require_fnINS0_12any_executorIJNS0_12context_as_tIRNS_17execution_contextEEENS1_8blocking7never_tILi0EEENS0_11prefer_onlyINS9_10possibly_tILi0EEEEENSC_INS1_16outstanding_work9tracked_tILi0EEEEENSC_INSG_11untracked_tILi0EEEEENSC_INS1_12relationship6fork_tILi0EEEEENSC_INSN_14continuation_tILi0EEEEEEEENS_10io_context19basic_executor_typeISaIvELj4EEESQ_EET_PKvS11_
_ZN4asio6detail16thread_info_baseC2Ev
eventfd@GLIBC_2.7
_ZN4asio9execution6detail17any_executor_base17query_fn_non_voidINS_10io_context19basic_executor_typeISaIvELj0EEENS0_11prefer_onlyINS1_16outstanding_work9tracked_tILi0EEEEEEEvPvPKvSF_PNSt9enable_ifIXaaaaaasrNS_9can_queryIRKT_RKT0_EE5valuentsrSt7is_sameINSL_29polymorphic_query_result_typeEvE5valuentsrSt12is_referenceISQ_E5valuentsrSt9is_scalarISQ_E5valueEvE4typeE
_ZNK14asio_prefer_fn4implclIRKN4asio10io_context19basic_executor_typeISaIvELj4EEERKNS2_9execution11prefer_onlyINS9_6detail12relationship6fork_tILi0EEEEEEENSt9enable_ifIXeqsrNS_11call_traitsIT_FvT0_EvEE8overloadLNS_13overload_typeE4EENSN_11result_typeEE4typeEOSK_OSL_
_ZNK14asio_prefer_fn4implclIRKN4asio10io_context19basic_executor_typeISaIvELj4EEERKNS2_9execution6detail16outstanding_work9tracked_tILi0EEEEENSt9enable_ifIXeqsrNS_11call_traitsIT_FvT0_EvEE8overloadLNS_13overload_typeE0EENSL_11result_typeEE4typeEOSI_OSJ_
_ZN4asio6detail13epoll_reactor25allocate_descriptor_stateEv
_ZNSt10error_codeC1EiRKNSt3_V214error_categoryE
_ZSt19__iterator_categoryIPKNSt7__cxx1112basic_stringIcSt11char_traitsIcESaIcEEEENSt15iterator_traitsIT_E17iterator_categoryERKS9_
_ZN4asio6detail26eventfd_select_interrupterC2Ev
_ZN4asio9execution6detail17any_executor_base8query_fnIvNS1_8blocking7never_tILi0EEEEEvPvPKvS9_
_ZNK4asio14mutable_buffer4sizeEv
_ZN4asio9execution6detail14relationship_tILi0EEC1ENS1_12relationship6fork_tILi0EEE
_ZN4asio9execution6detail17any_executor_base9prefer_fnINS0_12any_executorIJNS0_12context_as_tIRNS_17execution_contextEEENS1_8blocking7never_tILi0EEENS0_11prefer_onlyINS9_10possibly_tILi0EEEEENSC_INS1_16outstanding_work9tracked_tILi0EEEEENSC_INSG_11untracked_tILi0EEEEENSC_INS1_12relationship6fork_tILi0EEEEENSC_INSN_14continuation_tILi0EEEEEEEEvST_EET_PKvSX_
_ZN4asio2ip7addressC2ERKNS0_10address_v6E
_ZN4asio9execution6detail17any_executor_base14target_type_exINS_10io_context19basic_executor_typeISaIvELj0EEEEERKSt9type_infov
_ZN4asio6detail9schedulerC2ERNS_17execution_contextEib
_ZNSt15__exception_ptr13exception_ptrD2Ev
_ZN4asio6detail13epoll_reactor16descriptor_state11do_completeEPvPNS0_19scheduler_operationERKSt10error_codem
_ZNSt13runtime_errorC2ERKNSt7__cxx1112basic_stringIcSt11char_traitsIcESaIcEEE@GLIBCXX_3.4.21
_ZN4asio21invalid_service_ownerD0Ev
_ZN4asio9execution6detail17any_executor_base13query_fn_implINS_10io_context19basic_executor_typeISaIvELj0EEENS0_11prefer_onlyINS1_16outstanding_work11untracked_tILi0EEEEEEEvPvPKvSF_PNSt9enable_ifIXntsrSt7is_sameIT_vE5valueEvE4typeE
_ZSt7forwardIRKNSt7__cxx1112basic_stringIcSt11char_traitsIcESaIcEEEEOT_RNSt16remove_referenceIS8_E4typeE
_ZTIN4asio19multiple_exceptionsE
_ZN4asio6detail27conditionally_enabled_mutex11scoped_lockD1Ev
_ZN4asio17execution_context7serviceC2ERS0_
_ZN4asio9execution12any_executorIJNS0_12context_as_tIRNS_17execution_contextEEENS0_6detail8blocking7never_tILi0EEENS0_11prefer_onlyINS7_10possibly_tILi0EEEEENSA_INS6_16outstanding_work9tracked_tILi0EEEEENSA_INSE_11untracked_tILi0EEEEENSA_INS6_12relationship6fork_tILi0EEEEENSA_INSL_14continuation_tILi0EEEEEEE14prop_fns_tableINS_10io_context19basic_executor_typeISaIvELj4EEEEEPKNS6_17any_executor_base8prop_fnsISS_EEv
_ZN4asio9execution6detail10blocking_tILi0EEC1ENS1_8blocking8always_tILi0EEE
_ZN4asio6detail9schedulerC1ERNS_17execution_contextEib
_ZTVN4asio9execution12bad_executorE
_ZSteqNSt6thread2idES0_
_ZNSt10unique_ptrINSt6thread6_StateESt14default_deleteIS1_EED2Ev
_ZN4asio6detail13epoll_reactor32perform_io_cleanup_on_block_exitC2EPS1_
_ZN4asio6detail27conditionally_enabled_eventC1Ev
_ZN4asio6detail9scheduler14task_operationD2Ev
_ZN4asio9execution6detail17any_executor_base16object_fns_tableINS_10io_context19basic_executor_typeISaIvELj4EEEEEPKNS2_10object_fnsEPNSt9enable_ifIXaantsrSt7is_sameIT_vE5valuentsrSC_ISD_St10shared_ptrIvEE5valueEvE4typeE
ntohl@GLIBC_2.2.5
_ZNSt12_Vector_baseINSt7__cxx1112basic_stringIcSt11char_traitsIcESaIcEEESaIS5_EE13_M_deallocateEPS5_m
_ZN4asio6detail11executor_opINS0_22executor_function_viewESaIvENS0_19scheduler_operationEE11do_completeEPvPS4_RKSt10error_codem
_ZN4asio9execution6preferINS_10io_context19basic_executor_typeISaIvELj0EEENS0_6detail16outstanding_work11untracked_tILi0EEEEENS_13prefer_resultIRKT_JRKS9_EE4typeESD_RKNS0_11prefer_onlyIT0_EEPNSt9enable_ifIXaasrSt7is_sameISJ_S9_E5valuesrNS_10can_preferISD_JSF_EEE5valueEvE4typeE
_ZSt4cout@GLIBCXX_3.4
_ZN4asio5error6detail17addrinfo_categoryD2Ev
_ZSteqRKSt10error_codeS1_
_ZN4asio6detail10call_stackINS0_14thread_contextENS0_16thread_info_baseEE7contextD2Ev
_ZN4asio9execution12any_executorIJNS0_12context_as_tIRNS_17execution_contextEEENS0_6detail8blocking7never_tILi0EEENS0_11prefer_onlyINS7_10possibly_tILi0EEEEENSA_INS6_16outstanding_work9tracked_tILi0EEEEENSA_INSE_11untracked_tILi0EEEEENSA_INS6_12relationship6fork_tILi0EEEEENSA_INSL_14continuation_tILi0EEEEEEE14prop_fns_tableIvEEPKNS6_17any_executor_base8prop_fnsISS_EEv
_ZN4asio9execution6detail17any_executor_base14prefer_fn_implINS0_12any_executorIJNS0_12context_as_tIRNS_17execution_contextEEENS1_8blocking7never_tILi0EEENS0_11prefer_onlyINS9_10possibly_tILi0EEEEENSC_INS1_16outstanding_work9tracked_tILi0EEEEENSC_INSG_11untracked_tILi0EEEEENSC_INS1_12relationship6fork_tILi0EEEEENSC_INSN_14continuation_tILi0EEEEEEEEvSF_EET_PKvSX_PNSt9enable_ifIXsrSt7is_sameIT0_vE5valueEvE4typeE
_ZNKSt7__cxx1112basic_stringIcSt11char_traitsIcESaIcEE4dataEv@GLIBCXX_3.4.21
_ZN4asio6detail7tss_ptrINS0_10call_stackINS0_23strand_executor_service11strand_implEhE7contextEED1Ev
_ZTVN10__cxxabiv120__si_class_type_infoE@CXXABI_1.3
_ZN4asio6detail19recycling_allocatorINS0_11executor_opINS0_17executor_functionESaIvENS0_19scheduler_operationEEENS0_16thread_info_base11default_tagEEC1IvEERKNS1_IT_S8_EE
_ZN4asio9execution6detail17any_executor_base15require_fn_implINS0_12any_executorIJNS0_12context_as_tIRNS_17execution_contextEEENS1_8blocking7never_tILi0EEENS0_11prefer_onlyINS9_10possibly_tILi0EEEEENSC_INS1_16outstanding_work9tracked_tILi0EEEEENSC_INSG_11untracked_tILi0EEEEENSC_INS1_12relationship6fork_tILi0EEEEENSC_INSN_14continuation_tILi0EEEEEEEENS_10io_context19basic_executor_typeISaIvELj0EEESQ_EET_PKvS11_z
_ZNSt6chrono20__duration_cast_implINS_8durationIlSt5ratioILl1ELl1000000000EEEES2_ILl1000000ELl1EElLb0ELb1EE6__castIlS2_ILl1ELl1000EEEES4_RKNS1_IT_T0_EE
_ZNSt13runtime_errorC2ERKS_@GLIBCXX_3.4.21
_ZNSt15__exception_ptr13exception_ptrC1Ev
_ZN4asio6detail10socket_ops10setsockoptEiRhiiPKvmRSt10error_code
_ZNSt15__exception_ptr13exception_ptrC1EPv@CXXABI_1.3.11
_ZTIN4asio10io_context19basic_executor_typeISaIvELj4EEE
_ZNSt12_Vector_baseIcSaIcEE12_Vector_implD1Ev
_ZN4asio6detail11noncopyableD2Ev
_ZNK4asio6detail9scheduler16concurrency_hintEv
_ZN4asio6detail19recycling_allocatorIvNS0_16thread_info_base21executor_function_tagEEC1Ev
_ZNSt6threadD1Ev
_ZNSt11_Tuple_implILm1EJSt14default_deleteINSt6thread6_StateEEEEC2Ev
_ZNSt16allocator_traitsISaIcEE8allocateERS0_m
_ZSt10__fill_n_aIPcmcET_S1_T0_RKT1_St26random_access_iterator_tag
_ZTIN4asio6detail30execution_context_service_baseINS0_9schedulerEEE
_ZNSt7__cxx1112basic_stringIcSt11char_traitsIcESaIcEEC1IS3_EEPKcRKS3_
_ZN4asio6detail28reactive_socket_service_base7destroyERNS1_24base_implementation_typeE
_ZN4asio9execution6detail17any_executor_base13query_fn_implINS_10io_context19basic_executor_typeISaIvELj4EEENS0_11prefer_onlyINS1_12relationship6fork_tILi0EEEEEEEvPvPKvSF_PNSt9enable_ifIXntsrSt7is_sameIT_vE5valueEvE4typeE
epoll_create1@GLIBC_2.9
_ZN4asio6detail16service_registry10keys_matchERKNS_17execution_context7service3keyES6_
_ZN4asio9execution6preferINS_10io_context19basic_executor_typeISaIvELj0EEENS0_6detail12relationship14continuation_tILi0EEEEENS_13prefer_resultIRKT_JRKS9_EE4typeESD_RKNS0_11prefer_onlyIT0_EEPNSt9enable_ifIXaasrSt7is_sameISJ_S9_E5valuesrNS_10can_preferISD_JSF_EEE5valueEvE4typeE
_ZSt8_DestroyIPNSt7__cxx1112basic_stringIcSt11char_traitsIcESaIcEEES5_EvT_S7_RSaIT0_E
_ZNK14asio_prefer_fn4implclIRKN4asio9execution12any_executorIJNS3_12context_as_tIRNS2_17execution_contextEEENS3_6detail8blocking7never_tILi0EEENS3_11prefer_onlyINSA_10possibly_tILi0EEEEENSD_INS9_16outstanding_work9tracked_tILi0EEEEENSD_INSH_11untracked_tILi0EEEEENSD_INS9_12relationship6fork_tILi0EEEEENSD_INSO_14continuation_tILi0EEEEEEEERKSJ_EENSt9enable_ifIXeqsrNS_11call_traitsIT_FvT0_EvEE8overloadLNS_13overload_typeE3EENS15_11result_typeEE4typeEOS12_OS13_
_ZN4asio17execution_context2idD1Ev
_ZN4asio6detail13epoll_reactor32perform_io_cleanup_on_block_exitC1EPS1_
_ZN4asio6detail10reactor_opD2Ev
_ZNKSt5arrayIhLm4EE4dataEv
_ZNK4asio6detail26eventfd_select_interrupter15read_descriptorEv
_ZNSt14__array_traitsIhLm16EE6_S_refERA16_Khm
_ZTSN4asio6detail30execution_context_service_baseINS0_13epoll_reactorEEE
_ZN4asio9execution6preferINS_10io_context19basic_executor_typeISaIvELj4EEENS0_6detail12relationship6fork_tILi0EEEEENS_13prefer_resultIRKT_JRKS9_EE4typeESD_RKNS0_11prefer_onlyIT0_EEPNSt9enable_ifIXaasrSt7is_sameISJ_S9_E5valuesrNS_10can_preferISD_JSF_EEE5valueEvE4typeE
_ZN4asio9execution6preferINS_10io_context19basic_executor_typeISaIvELj0EEENS0_6detail16outstanding_work9tracked_tILi0EEEEENS_13prefer_resultIRKT_JRKS9_EE4typeESD_RKNS0_11prefer_onlyIT0_EEPNSt9enable_ifIXaasrSt7is_sameISJ_S9_E5valuesrNS_10can_preferISD_JSF_EEE5valueEvE4typeE
_ZZN4asio9execution12any_executorIJNS0_12context_as_tIRNS_17execution_contextEEENS0_6detail8blocking7never_tILi0EEENS0_11prefer_onlyINS7_10possibly_tILi0EEEEENSA_INS6_16outstanding_work9tracked_tILi0EEEEENSA_INSE_11untracked_tILi0EEEEENSA_INS6_12relationship6fork_tILi0EEEEENSA_INSL_14continuation_tILi0EEEEEEE14prop_fns_tableINS_10io_context19basic_executor_typeISaIvELj4EEEEEPKNS6_17any_executor_base8prop_fnsISS_EEvE3fns
_ZN4asio6detail21scheduler_thread_infoD1Ev
_ZN4asio9execution6detail17any_executor_base6objectINS_10io_context19basic_executor_typeISaIvELj0EEEEERT_v
_ZN4asio9execution6detail17any_executor_base14destroy_objectINS_10io_context19basic_executor_typeISaIvELj4EEEEEvRS2_
_ZGVN4asio6detail10call_stackINS0_14strand_service11strand_implEhE4top_E
_ZN4asio9execution6detail17any_executor_base10require_fnINS0_12any_executorIJNS0_12context_as_tIRNS_17execution_contextEEENS1_8blocking7never_tILi0EEENS0_11prefer_onlyINS9_10possibly_tILi0EEEEENSC_INS1_16outstanding_work9tracked_tILi0EEEEENSC_INSG_11untracked_tILi0EEEEENSC_INS1_12relationship6fork_tILi0EEEEENSC_INSN_14continuation_tILi0EEEEEEEENS_10io_context19basic_executor_typeISaIvELj0EEESJ_EET_PKvS11_
_ZN4asio6detail10scoped_ptrINS0_9schedulerEED2Ev
_ZN4asio2ip16bad_address_castD0Ev
_ZNK4asio10io_context19basic_executor_typeISaIvELj0EE5queryENS_9execution6detail10blocking_tILi0EEE
_ZN4asio6detail10scoped_ptrINS0_9schedulerEEC2EPS2_
_ZN4asio6detail12posix_thread4funcINS0_9scheduler15thread_functionEED1Ev
_ZSt11__addressofIN4asio6detail17executor_functionEEPT_RS3_
_ZN4asio6detail19recycling_allocatorINS0_11executor_opINS0_22executor_function_viewESaIvENS0_19scheduler_operationEEENS0_16thread_info_base11default_tagEE8allocateEm
_ZNSt13__atomic_baseIlEmmEv
_ZNSt6vectorINSt7__cxx1112basic_stringIcSt11char_traitsIcESaIcEEESaIS5_EE17_S_check_init_lenEmRKS6_
_ZN4asio6detail16std_fenced_blockD2Ev
_ZNK13asio_query_fn4implclIRKN4asio10io_context19basic_executor_typeISaIvELj4EEERKNS2_9execution11prefer_onlyINS9_6detail16outstanding_work9tracked_tILi0EEEEEEENSt9enable_ifIXeqsrNS_11call_traitsIT_FvT0_EvEE8overloadLNS_13overload_typeE0EENSN_11result_typeEE4typeEOSK_OSL_
_ZTVN4asio6detail12posix_thread4funcINS0_9scheduler15thread_functionEEE
_ZTVN4asio2ip16bad_address_castE
pipe@GLIBC_2.2.5
_ZN4asio14mutable_bufferC1EPvm
_ZN4asio6detail9scheduler25capture_current_exceptionEv
_ZNSt12system_errorC1ESt10error_code
_ZNSt15__exception_ptr13exception_ptrC1EOS0_
_ZN4asio6detail27conditionally_enabled_event10signal_allERNS0_27conditionally_enabled_mutex11scoped_lockE
_ZN4asio17execution_context7service7contextEv
_ZN4asio6detail12posix_thread4funcINS0_9scheduler15thread_functionEE3runEv
_ZN4asio6detail9scheduler8shutdownEv
_ZN4asio9execution6detail14relationship_tILi0EEC2ENS1_12relationship6fork_tILi0EEE
_ZN4asio10io_context8add_implEPNS_6detail9schedulerE
_ZN4asio6detail18static_query_traitINS_10io_context19basic_executor_typeISaIvELj4EEENS_9execution11prefer_onlyINS6_6detail16outstanding_work9tracked_tILi0EEEEEvE5valueEv
_ZN4asio9execution6detail14relationship_tILi0EEC1ENS1_12relationship14continuation_tILi0EEE
_ZN4asio21invalid_service_ownerD1Ev
_ZN4asio9execution6detail17any_executor_base8query_fnIvNS0_11prefer_onlyINS1_12relationship14continuation_tILi0EEEEEEEvPvPKvSB_
_ZN4asio9execution6detail10blocking_tILi0EEC1ENS1_8blocking7never_tILi0EEE
_ZN4asio6detail15op_queue_access4nextINS0_19scheduler_operationEEEPT_S5_
_ZN4asio9execution6detail17any_executor_base13target_objectINS_10io_context19basic_executor_typeISaIvELj0EEEEEPKvRKS2_
__data_start
_ZNK4asio10io_context19basic_executor_typeISaIvELj4EE5queryENS_9execution6detail14relationship_tILi0EEE
_ZN4asio6detail16thread_info_base10deallocateINS1_11default_tagEEEvT_PS1_Pvm
_ZNK13asio_query_fn4implclIRKN4asio10io_context19basic_executor_typeISaIvELj0EEERKNS2_9execution11prefer_onlyINS9_6detail16outstanding_work9tracked_tILi0EEEEEEENSt9enable_ifIXeqsrNS_11call_traitsIT_FvT0_EvEE8overloadLNS_13overload_typeE0EENSN_11result_typeEE4typeEOSK_OSL_
_ZN4asio6detail9scheduler25post_deferred_completionsERNS0_8op_queueINS0_19scheduler_operationEEE
_ZN4asio6detail18static_query_traitINS_10io_context19basic_executor_typeISaIvELj0EEENS_9execution11prefer_onlyINS6_6detail16outstanding_work11untracked_tILi0EEEEEvE5valueEv
_ZNK4asio2ip7address5is_v4Ev
_ZN4asio6detail20posix_signal_blockerD2Ev
_ZN4asio6detail13epoll_reactor32perform_io_cleanup_on_block_exitD2Ev
_ZTIN4asio6detail14typeid_wrapperINS0_9schedulerEEE
_ZN4asio6detail28reactive_socket_recv_op_baseINS_17mutable_buffers_1EED1Ev
epoll_ctl@GLIBC_2.3.2
_end
_ZN4asio6detail15op_queue_access5frontINS0_10reactor_opEEERPT_RNS0_8op_queueIS4_EE
_ZN4asio9execution6detail17any_executor_base13query_fn_implINS_10io_context19basic_executor_typeISaIvELj0EEENS0_11prefer_onlyINS1_12relationship14continuation_tILi0EEEEEEEvPvPKvSF_PNSt9enable_ifIXntsrSt7is_sameIT_vE5valueEvE4typeE
_ZSt6fill_nIPcmcET_S1_T0_RKT1_
_ZN4asio9execution6detail17any_executor_base8query_fnINS_10io_context19basic_executor_typeISaIvELj4EEENS0_11prefer_onlyINS1_8blocking10possibly_tILi0EEEEEEEvPvPKvSF_
_ZNSt7__cxx1112basic_stringIcSt11char_traitsIcESaIcEEC1Ev@GLIBCXX_3.4.21
_ZN4asio6detail11executor_opINS0_17executor_functionESaIvENS0_19scheduler_operationEEC2IS2_EEOT_RKS3_
_ZNSt6vectorINSt7__cxx1112basic_stringIcSt11char_traitsIcESaIcEEESaIS5_EED1Ev
_ZN4asioeqERKNS_10io_context19basic_executor_typeISaIvELj4EEES5_
_ZN4asio6detail15op_queue_access5frontINS0_19scheduler_operationEEERPT_RNS0_8op_queueIS4_EE
_ZN4asio6detail18static_query_traitINS_10io_context19basic_executor_typeISaIvELj0EEENS_9execution11prefer_onlyINS6_6detail16outstanding_work9tracked_tILi0EEEEEvE5valueEv
_ZN4asio6detail23reactive_socket_serviceINS_2ip3tcpEE8shutdownEv
_ZN4asio9execution6preferINS_10io_context19basic_executor_typeISaIvELj0EEENS0_6detail12relationship6fork_tILi0EEEEENS_13prefer_resultIRKT_JRKS9_EE4typeESD_RKNS0_11prefer_onlyIT0_EEPNSt9enable_ifIXaasrSt7is_sameISJ_S9_E5valuesrNS_10can_preferISD_JSF_EEE5valueEvE4typeE
_ZN4asio9execution6detail17any_executor_base13query_fn_implINS_10io_context19basic_executor_typeISaIvELj4EEENS0_11prefer_onlyINS1_16outstanding_work11untracked_tILi0EEEEEEEvPvPKvSF_PNSt9enable_ifIXntsrSt7is_sameIT_vE5valueEvE4typeE
_ZNSt6vectorIcSaIcEE17_S_check_init_lenEmRKS0_
_ZTIN4asio6detail12posix_thread4funcINS0_9scheduler15thread_functionEEE
strcmp@GLIBC_2.2.5
_ZNSt10_Head_baseILm1ESt14default_deleteINSt6thread6_StateEELb1EEC1Ev
_ZN4asio9execution6detail17any_executor_base14prefer_fn_implINS0_12any_executorIJNS0_12context_as_tIRNS_17execution_contextEEENS1_8blocking7never_tILi0EEENS0_11prefer_onlyINS9_10possibly_tILi0EEEEENSC_INS1_16outstanding_work9tracked_tILi0EEEEENSC_INSG_11untracked_tILi0EEEEENSC_INS1_12relationship6fork_tILi0EEEEENSC_INSN_14continuation_tILi0EEEEEEEENS_10io_context19basic_executor_typeISaIvELj0EEESM_EET_PKvS11_PNSt9enable_ifIXaantsrSt7is_sameIT0_vE5valuesrT1_13is_preferableEvE4typeE
_ZN4asio6detail12posix_thread12start_threadEPNS1_9func_baseE
strtol@GLIBC_2.2.5
_ZN4asio19multiple_exceptionsD2Ev
_ZN4asio10io_context12get_executorEv
_ZN4asio6detail12posix_threadC2INS0_9scheduler15thread_functionEEET_j
_ZN4asio9execution12any_executorIJNS0_12context_as_tIRNS_17execution_contextEEENS0_6detail8blocking7never_tILi0EEENS0_11prefer_onlyINS7_10possibly_tILi0EEEEENSA_INS6_16outstanding_work9tracked_tILi0EEEEENSA_INSE_11untracked_tILi0EEEEENSA_INS6_12relationship6fork_tILi0EEEEENSA_INSL_14continuation_tILi0EEEEEEEC2Ev
_ZTISt8bad_cast@GLIBCXX_3.4
_ZTVN4asio21invalid_service_ownerE
_ZTIN4asio5error6detail14netdb_categoryE
ioctl@GLIBC_2.2.5
_ZN4asio6detail23reactive_socket_serviceINS_2ip3tcpEEC2ERNS_17execution_contextE
_ZNSt6chrono8durationIlSt5ratioILl1ELl1000EEEC1IlS1_ILl1ELl1EEvEERKNS0_IT_T0_EE
_ZN14asio_prefer_fn15static_instanceINS_4implEE8instanceE
_ZN4asio9execution6detail17any_executor_base9prefer_fnINS0_12any_executorIJNS0_12context_as_tIRNS_17execution_contextEEENS1_8blocking7never_tILi0EEENS0_11prefer_onlyINS9_10possibly_tILi0EEEEENSC_INS1_16outstanding_work9tracked_tILi0EEEEENSC_INSG_11untracked_tILi0EEEEENSC_INS1_12relationship6fork_tILi0EEEEENSC_INSN_14continuation_tILi0EEEEEEEEvSM_EET_PKvSX_
_ZN4asio9execution6detail17any_executor_base14prefer_fn_implINS0_12any_executorIJNS0_12context_as_tIRNS_17execution_contextEEENS1_8blocking7never_tILi0EEENS0_11prefer_onlyINS9_10possibly_tILi0EEEEENSC_INS1_16outstanding_work9tracked_tILi0EEEEENSC_INSG_11untracked_tILi0EEEEENSC_INS1_12relationship6fork_tILi0EEEEENSC_INSN_14continuation_tILi0EEEEEEEENS_10io_context19basic_executor_typeISaIvELj0EEESB_EET_PKvS11_PNSt9enable_ifIXaantsrSt7is_sameIT0_vE5valuesrT1_13is_preferableEvE4typeE
_ZN4asio6detail17handler_work_baseINS_9execution12any_executorIJNS2_12context_as_tIRNS_17execution_contextEEENS2_6detail8blocking7never_tILi0EEENS2_11prefer_onlyINS9_10possibly_tILi0EEEEENSC_INS8_16outstanding_work9tracked_tILi0EEEEENSC_INSG_11untracked_tILi0EEEEENSC_INS8_12relationship6fork_tILi0EEEEENSC_INSN_14continuation_tILi0EEEEEEEEvNS_10io_contextENS_8executorEvED2Ev
_ZN4asio6detail13epoll_reactor16descriptor_stateC1Eb
_ZNSt5tupleIJPNSt6thread6_StateESt14default_deleteIS1_EEEC2ILb1ELb1EEEv
_ZNK4asio2ip14basic_endpointINS0_3tcpEE4sizeEv
_ZN4asio12basic_socketINS_2ip3tcpENS_9execution12any_executorIJNS3_12context_as_tIRNS_17execution_contextEEENS3_6detail8blocking7never_tILi0EEENS3_11prefer_onlyINSA_10possibly_tILi0EEEEENSD_INS9_16outstanding_work9tracked_tILi0EEEEENSD_INSH_11untracked_tILi0EEEEENSD_INS9_12relationship6fork_tILi0EEEEENSD_INSO_14continuation_tILi0EEEEEEEEEC1INS_10io_contextEEERT_PNSt9enable_ifIXsrSt14is_convertibleIS10_S7_E5valueEvE4typeE
_ZNK14asio_prefer_fn4implclIRKN4asio10io_context19basic_executor_typeISaIvELj4EEERKNS2_9execution11prefer_onlyINS9_6detail16outstanding_work9tracked_tILi0EEEEEEENSt9enable_ifIXeqsrNS_11call_traitsIT_FvT0_EvEE8overloadLNS_13overload_typeE4EENSN_11result_typeEE4typeEOSK_OSL_
_ZN4asio9execution6detail17any_executor_base10require_fnINS0_12any_executorIJNS0_12context_as_tIRNS_17execution_contextEEENS1_8blocking7never_tILi0EEENS0_11prefer_onlyINS9_10possibly_tILi0EEEEENSC_INS1_16outstanding_work9tracked_tILi0EEEEENSC_INSG_11untracked_tILi0EEEEENSC_INS1_12relationship6fork_tILi0EEEEENSC_INSN_14continuation_tILi0EEEEEEEENS_10io_context19basic_executor_typeISaIvELj4EEES8_EET_PKvS11_
_ZN4asioeqERKNS_10io_context19basic_executor_typeISaIvELj0EEES5_
_ZSt19__iterator_categoryIPKcENSt15iterator_traitsIT_E17iterator_categoryERKS3_
_ZN4asio14mutable_bufferC2EPvm
_ZN4asio9execution6detail17any_executor_base14prefer_fn_implINS0_12any_executorIJNS0_12context_as_tIRNS_17execution_contextEEENS1_8blocking7never_tILi0EEENS0_11prefer_onlyINS9_10possibly_tILi0EEEEENSC_INS1_16outstanding_work9tracked_tILi0EEEEENSC_INSG_11untracked_tILi0EEEEENSC_INS1_12relationship6fork_tILi0EEEEENSC_INSN_14continuation_tILi0EEEEEEEENS_10io_context19basic_executor_typeISaIvELj0EEESF_EET_PKvS11_PNSt9enable_ifIXaantsrSt7is_sameIT0_vE5valuesrT1_13is_preferableEvE4typeE
_ZN4asio28asio_handler_is_continuationEz
_ZNSaIcEC2ERKS_@GLIBCXX_3.4
_ZN4asio6detail27conditionally_enabled_mutex11scoped_lockC2ERS1_NS2_12adopt_lock_tE
_ZN4asio9execution6detail17any_executor_base8equal_exINS_10io_context19basic_executor_typeISaIvELj4EEEEEbRKS2_S9_
_ZN9__gnu_cxx13new_allocatorINSt7__cxx1112basic_stringIcSt11char_traitsIcESaIcEEEEC1ERKS7_
_ZN4asio11use_serviceINS_6detail13epoll_reactorEEERT_RNS_17execution_contextE
_ZN4asio9execution5queryINS_10io_context19basic_executor_typeISaIvELj4EEENS0_6detail8blocking10possibly_tILi0EEEEENS_12query_resultIRKT_RKS9_E4typeESD_RKNS0_11prefer_onlyIT0_EEPNSt9enable_ifIXaasrSt7is_sameISJ_S9_E5valuesrNS_9can_queryISD_SF_EE5valueEvE4typeE
_ZN4asio6detail13epoll_reactor23cleanup_descriptor_dataERPNS1_16descriptor_stateE
_ZNKSt10error_code7messageB5cxx11Ev
_ZN4asio6detail13epoll_reactorD1Ev
_ZSt20__throw_out_of_rangePKc@GLIBCXX_3.4
_ZN4asio6detail28reactive_socket_service_base9constructERNS1_24base_implementation_typeE
_ZN4asio6detail11posix_event4waitINS0_27conditionally_enabled_mutex11scoped_lockEEEvRT_
_ZN4asio9execution6detail17any_executor_base8query_fnIvNS0_11prefer_onlyINS1_16outstanding_work11untracked_tILi0EEEEEEEvPvPKvSB_
__cxa_rethrow@CXXABI_1.3
_ZNSt5tupleIJPNSt6thread6_StateESt14default_deleteIS1_EEEC1ILb1ELb1EEEv
_ZN4asio9execution6detail17any_executor_base15require_fn_implINS0_12any_executorIJNS0_12context_as_tIRNS_17execution_contextEEENS1_8blocking7never_tILi0EEENS0_11prefer_onlyINS9_10possibly_tILi0EEEEENSC_INS1_16outstanding_work9tracked_tILi0EEEEENSC_INSG_11untracked_tILi0EEEEENSC_INS1_12relationship6fork_tILi0EEEEENSC_INSN_14continuation_tILi0EEEEEEEENS_10io_context19basic_executor_typeISaIvELj0EEES8_EET_PKvS11_z
_ZN27asio_execution_set_error_fn15static_instanceINS_4implEE8instanceE
_ZSt9addressofIKSaIvEEPT_RS2_
pthread_mutex_lock@GLIBC_2.2.5
_ZNKSt11logic_error4whatEv@GLIBCXX_3.4
_ZN4asio6detail11posix_mutexC1Ev
_ZN4asio9execution6detail17any_executor_base15require_fn_implINS0_12any_executorIJNS0_12context_as_tIRNS_17execution_contextEEENS1_8blocking7never_tILi0EEENS0_11prefer_onlyINS9_10possibly_tILi0EEEEENSC_INS1_16outstanding_work9tracked_tILi0EEEEENSC_INSG_11untracked_tILi0EEEEENSC_INS1_12relationship6fork_tILi0EEEEENSC_INSN_14continuation_tILi0EEEEEEEENS_10io_context19basic_executor_typeISaIvELj4EEESJ_EET_PKvS11_z
_ZN4asio6detail16service_registry6createINS0_9schedulerENS_17execution_contextEEEPNS4_7serviceEPv
_ZN4asio6detail11executor_opINS0_17executor_functionESaIvENS0_19scheduler_operationEEC1IS2_EEOT_RKS3_
_ZN4asio5error6detail14netdb_categoryD2Ev
_ZN4asio6detail11executor_opINS0_22executor_function_viewESaIvENS0_19scheduler_operationEE3ptr8allocateERKS3_
pthread_mutex_init@GLIBC_2.2.5
_ZNK4asio6detail14io_object_implINS0_23reactive_socket_serviceINS_2ip3tcpEEENS_9execution12any_executorIJNS6_12context_as_tIRNS_17execution_contextEEENS6_6detail8blocking7never_tILi0EEENS6_11prefer_onlyINSD_10possibly_tILi0EEEEENSG_INSC_16outstanding_work9tracked_tILi0EEEEENSG_INSK_11untracked_tILi0EEEEENSG_INSC_12relationship6fork_tILi0EEEEENSG_INSR_14continuation_tILi0EEEEEEEEE11get_serviceEv
_ZN4asio9execution6detail17any_executor_base9prefer_fnINS0_12any_executorIJNS0_12context_as_tIRNS_17execution_contextEEENS1_8blocking7never_tILi0EEENS0_11prefer_onlyINS9_10possibly_tILi0EEEEENSC_INS1_16outstanding_work9tracked_tILi0EEEEENSC_INSG_11untracked_tILi0EEEEENSC_INS1_12relationship6fork_tILi0EEEEENSC_INSN_14continuation_tILi0EEEEEEEENS_10io_context19basic_executor_typeISaIvELj4EEESF_EET_PKvS11_
_ZNSt20__uninitialized_copyILb0EE13__uninit_copyIPKNSt7__cxx1112basic_stringIcSt11char_traitsIcESaIcEEEPS7_EET0_T_SC_SB_
_ZN4asio6detail15keyword_tss_ptrINS0_10call_stackINS0_14thread_contextENS0_16thread_info_baseEE7contextEEaSEPS6_
_ZN4asio2ip7addressC2Ev
_ZN4asio6detail16service_registry11use_serviceINS0_9schedulerEEERT_v
_ZN4asio17execution_context7destroyEv
_ZSt11__addressofISaIvEEPT_RS1_
_ZN4asio22service_already_existsC2ERKS0_
_ZN4asio6detail11object_poolINS0_13epoll_reactor16descriptor_stateEED2Ev
_ZN4asio2ip7addressC1ERKNS0_10address_v6E
_ZN4asio6detail30execution_context_service_baseINS0_9schedulerEED1Ev
_ZN4asio6detail15system_categoryD2Ev
_ZNK4asio2ip10address_v68scope_idEv
_ZTIN4asio22service_already_existsE
_ZNSt11char_traitsIcE7compareEPKcS2_m
poll@GLIBC_2.2.5
_ZN4asio6detail26eventfd_select_interrupterD1Ev
_ZN4asio19multiple_exceptionsC1ENSt15__exception_ptr13exception_ptrE
_ZN4asio6bufferEPvm
__bss_start
_ZN4asio6detail16service_registry8init_keyINS0_9schedulerEEEvRNS_17execution_context7service3keyEz
_ZNSt12_Vector_baseIcSaIcEE11_M_allocateEm
_ZN4asio6detail23reactive_socket_serviceINS_2ip3tcpEED0Ev
_ZN4asio9execution11prefer_onlyINS0_6detail8blocking10possibly_tILi0EEEEC1ERKS5_
_ZN4asio6detail19scheduler_operationD1Ev
_ZN4asio6detail10socket_ops18non_blocking_recv1EiPvmibRSt10error_codeRm
_ZNSaINSt7__cxx1112basic_stringIcSt11char_traitsIcESaIcEEEEC1Ev
_ZN4asio6detail13epoll_reactor25post_immediate_completionEPNS0_10reactor_opEb
_ZTSN4asio6detail13epoll_reactorE
_ZN4asio6detail11scoped_lockINS0_11posix_mutexEE4lockEv
_ZN4asio6detail8op_queueINS0_19scheduler_operationEED2Ev
_ZNK4asio6detail15timer_queue_set18wait_duration_usecEl
_ZN4asio9execution6detail17any_executor_base17query_fn_non_voidINS_10io_context19basic_executor_typeISaIvELj0EEENS1_8blocking7never_tILi0EEEEEvPvPKvSD_PNSt9enable_ifIXaaaaaasrNS_9can_queryIRKT_RKT0_EE5valuentsrSt7is_sameINSJ_29polymorphic_query_result_typeEvE5valuentsrSt12is_referenceISO_E5valuentsrSt9is_scalarISO_E5valueEvE4typeE
_ZNK4asio6detail13socket_holder3getEv
_ZNK4asio10io_context19basic_executor_typeISaIvELj4EE7requireENS_9execution6detail12relationship14continuation_tILi0EEE
pthread_cond_wait@GLIBC_2.3.2
_ZN4asio6detail13epoll_reactor16descriptor_state16add_ready_eventsEj
_ZN4asio6detail30execution_context_service_baseINS0_23reactive_socket_serviceINS_2ip3tcpEEEED1Ev
_ZN4asio9execution6preferINS_10io_context19basic_executor_typeISaIvELj4EEENS0_6detail8blocking10possibly_tILi0EEEEENS_13prefer_resultIRKT_JRKS9_EE4typeESD_RKNS0_11prefer_onlyIT0_EEPNSt9enable_ifIXaasrSt7is_sameISJ_S9_E5valuesrNS_10can_preferISD_JSF_EEE5valueEvE4typeE
_ZN4asio6detail12posix_thread4joinEv
_ZN4asio6detail19scheduler_operation8completeEPvRKSt10error_codem
_ZNSt8ios_base4InitC1Ev@GLIBCXX_3.4
_ZN4asio6detail11scoped_lockINS0_11posix_mutexEE6unlockEv
_ZN4asio9execution6detail17any_executor_base15require_fn_implINS0_12any_executorIJNS0_12context_as_tIRNS_17execution_contextEEENS1_8blocking7never_tILi0EEENS0_11prefer_onlyINS9_10possibly_tILi0EEEEENSC_INS1_16outstanding_work9tracked_tILi0EEEEENSC_INSG_11untracked_tILi0EEEEENSC_INS1_12relationship6fork_tILi0EEEEENSC_INSN_14continuation_tILi0EEEEEEEENS_10io_context19basic_executor_typeISaIvELj4EEESB_EET_PKvS11_PNSt9enable_ifIXaantsrSt7is_sameIT0_vE5valuesrT1_13is_requirableEvE4typeE
_ZN4asio6detail12posix_thread9func_baseC2Ev
_ZN4asio6detail9scheduler25post_immediate_completionEPNS0_19scheduler_operationEb
_ZN9__gnu_cxx13new_allocatorIcE10deallocateEPcm
_ZN4asio2ip6detail8endpointC1Ev
_ZNK13asio_query_fn4implclIRKN4asio10io_context19basic_executor_typeISaIvELj4EEERKNS2_9execution6detail10blocking_tILi0EEEEENSt9enable_ifIXeqsrNS_11call_traitsIT_FvT0_EvEE8overloadLNS_13overload_typeE1EENSK_11result_typeEE4typeEOSH_OSI_
_ZNSt6threadD2Ev
_ZN4asio9execution6detail17any_executor_base17query_fn_non_voidINS_10io_context19basic_executor_typeISaIvELj0EEENS0_11prefer_onlyINS1_8blocking10possibly_tILi0EEEEEEEvPvPKvSF_PNSt9enable_ifIXaaaaaasrNS_9can_queryIRKT_RKT0_EE5valuentsrSt7is_sameINSL_29polymorphic_query_result_typeEvE5valuentsrSt12is_referenceISQ_E5valuentsrSt9is_scalarISQ_E5valueEvE4typeE
_ZN4asio6detail27conditionally_enabled_mutexC2Eb
_ZN4asio6detail15system_category15strerror_resultEPKcS3_
_ZN4asio6detail9scheduler26wake_one_thread_and_unlockERNS0_27conditionally_enabled_mutex11scoped_lockE
_ZN4asio2ip6detail8endpointC1ERKNS0_7addressEt
_ZN4asio6detail19recycling_allocatorIvNS0_16thread_info_base11default_tagEEC1Ev
_ZN4asio6detail13epoll_reactor8shutdownEv
_ZN4asio21invalid_service_ownerC2ERKS0_
atoi@GLIBC_2.2.5
_ZNKSt6vectorIcSaIcEE11_M_data_ptrIcEEPT_S4_
_ZNSt10error_codeC2EiRKNSt3_V214error_categoryE
_ZNK4asio9execution6detail17any_executor_base6targetINS_10io_context19basic_executor_typeISaIvELj0EEEEEPKT_v
_ZN4asio6detail15keyword_tss_ptrINS0_10call_stackINS0_23strand_executor_service11strand_implEhE7contextEEC1Ev
_ZTVN4asio5error6detail13misc_categoryE
_ZNKSt10error_code5valueEv
_ZN4asio9execution6detail17any_executor_baseC2Ev
_ZNK13asio_query_fn4implclIRKN4asio10io_context19basic_executor_typeISaIvELj4EEERKNS2_9execution6detail12relationship6fork_tILi0EEEEENSt9enable_ifIXeqsrNS_11call_traitsIT_FvT0_EvEE8overloadLNS_13overload_typeE1EENSL_11result_typeEE4typeEOSI_OSJ_
_ZSt8distanceIPKcENSt15iterator_traitsIT_E15difference_typeES3_S3_
_ZN4asio6detail27conditionally_enabled_mutex11scoped_lockD2Ev
_ZNK4asio2ip3tcp4typeEv
_ZN4asio9execution6detail17any_executor_base15require_fn_implINS0_12any_executorIJNS0_12context_as_tIRNS_17execution_contextEEENS1_8blocking7never_tILi0EEENS0_11prefer_onlyINS9_10possibly_tILi0EEEEENSC_INS1_16outstanding_work9tracked_tILi0EEEEENSC_INSG_11untracked_tILi0EEEEENSC_INS1_12relationship6fork_tILi0EEEEENSC_INSN_14continuation_tILi0EEEEEEEENS_10io_context19basic_executor_typeISaIvELj0EEESB_EET_PKvS11_PNSt9enable_ifIXaantsrSt7is_sameIT0_vE5valuesrT1_13is_requirableEvE4typeE
_ZN4asio2ip10address_v6C2ERKSt5arrayIhLm16EEm
_ZN4asio6detail11executor_opINS0_17executor_functionESaIvENS0_19scheduler_operationEE3ptr5resetEv
_ZN4asio19basic_stream_socketINS_2ip3tcpENS_9execution12any_executorIJNS3_12context_as_tIRNS_17execution_contextEEENS3_6detail8blocking7never_tILi0EEENS3_11prefer_onlyINSA_10possibly_tILi0EEEEENSD_INS9_16outstanding_work9tracked_tILi0EEEEENSD_INSH_11untracked_tILi0EEEEENSD_INS9_12relationship6fork_tILi0EEEEENSD_INSO_14continuation_tILi0EEEEEEEEE22initiate_async_receiveC1EPSW_
_ZN4asio9execution6detail17any_executor_base14prefer_fn_implINS0_12any_executorIJNS0_12context_as_tIRNS_17execution_contextEEENS1_8blocking7never_tILi0EEENS0_11prefer_onlyINS9_10possibly_tILi0EEEEENSC_INS1_16outstanding_work9tracked_tILi0EEEEENSC_INSG_11untracked_tILi0EEEEENSC_INS1_12relationship6fork_tILi0EEEEENSC_INSN_14continuation_tILi0EEEEEEEENS_10io_context19basic_executor_typeISaIvELj0EEES8_EET_PKvS11_z
_ZNSt13__atomic_baseIlEpLEl
_ZN4asio17execution_context7serviceD1Ev
_ZNK4asio19multiple_exceptions4whatEv
_ZNSt8bad_castD2Ev@GLIBCXX_3.4
_ZN4asio6detail11posix_event5clearINS0_27conditionally_enabled_mutex11scoped_lockEEEvRT_
_ZTSN4asio6detail15io_context_bitsE
_ZnwmPv
_ZN4asio9execution6detail17any_executor_baseC1Ev
_ZNSt15__exception_ptr13exception_ptrC1ERKS0_
_ZZN9__gnu_cxx6__stoaIlicJiEEET0_PFT_PKT1_PPS3_DpT2_EPKcS5_PmS9_EN11_Save_errnoC1Ev
_ZN13asio_query_fn15static_instanceINS_4implEE8instanceE
_ZN4asio9execution6detail17any_executor_base8query_fnINS_10io_context19basic_executor_typeISaIvELj4EEENS0_11prefer_onlyINS1_12relationship6fork_tILi0EEEEEEEvPvPKvSF_
_ZN4asio10io_context19basic_executor_typeISaIvELj4EEC1EOS3_
_ZSt9addressofIN4asio6detail22executor_function_viewEEPT_RS3_
_ZNSt6chrono13duration_castINS_8durationIlSt5ratioILl1ELl1EEEElS2_ILl1ELl1000EEEENSt9enable_ifIXsrNS_13__is_durationIT_EE5valueES8_E4typeERKNS1_IT0_T1_EE
_ZN4asio10io_contextC2Ev
_ZGVN4asio6detail12service_baseINS0_14strand_serviceEE2idE
_ZN4asio6detail8op_queueINS0_19scheduler_operationEE3popEv
_ZGVN4asio6detail30execution_context_service_baseINS0_13epoll_reactorEE2idE
_ZN4asio9execution6detail17any_executor_base10require_fnINS0_12any_executorIJNS0_12context_as_tIRNS_17execution_contextEEENS1_8blocking7never_tILi0EEENS0_11prefer_onlyINS9_10possibly_tILi0EEEEENSC_INS1_16outstanding_work9tracked_tILi0EEEEENSC_INSG_11untracked_tILi0EEEEENSC_INS1_12relationship6fork_tILi0EEEEENSC_INSN_14continuation_tILi0EEEEEEEEvSB_EET_PKvSX_
_ZSteqIcEN9__gnu_cxx11__enable_ifIXsrSt9__is_charIT_E7__valueEbE6__typeERKNSt7__cxx1112basic_stringIS3_St11char_traitsIS3_ESaIS3_EEESE_
_ZNK4asio2ip14basic_endpointINS0_3tcpEE4dataEv
_ZNSt8literals15chrono_literalsli2msIJLc50ELc48ELc48EEEENSt6chrono8durationIlSt5ratioILl1ELl1000EEEEv
_ZNSt6chronoleIlSt5ratioILl1ELl1000EElS2_EEbRKNS_8durationIT_T0_EERKNS3_IT1_T2_EE
_ZN4asio6detail15op_queue_access4backINS0_19scheduler_operationEEERPT_RNS0_8op_queueIS4_EE
_ZNSt6vectorINSt7__cxx1112basic_stringIcSt11char_traitsIcESaIcEEESaIS5_EE11_S_max_sizeERKS6_
_ZN4asio6detail11posix_eventC1Ev
_ZN4asio6detail9scheduler25compensating_work_startedEv
_ZN4asio6detail11executor_opINS0_22executor_function_viewESaIvENS0_19scheduler_operationEEC2IRS2_EEOT_RKS3_
_ZN4asio6detail19recycling_allocatorIvNS0_16thread_info_base11default_tagEEC2Ev
_ZN4asio10io_context19basic_executor_typeISaIvELj4EED2Ev
_ZSt9__fill_a1IcEN9__gnu_cxx11__enable_ifIXsrSt9__is_byteIT_E7__valueEvE6__typeEPS3_S7_RKS3_
_ZSt8_DestroyIPNSt7__cxx1112basic_stringIcSt11char_traitsIcESaIcEEEEvT_S7_
_ZNSt15__exception_ptr13exception_ptraSEOS0_
_ZNK4asio6detail8op_queueINS0_10reactor_opEE5emptyEv
_ZN4asio9execution12bad_executorC2Ev
_ZN4asio9execution6detail17any_executor_base15require_fn_implINS0_12any_executorIJNS0_12context_as_tIRNS_17execution_contextEEENS1_8blocking7never_tILi0EEENS0_11prefer_onlyINS9_10possibly_tILi0EEEEENSC_INS1_16outstanding_work9tracked_tILi0EEEEENSC_INSG_11untracked_tILi0EEEEENSC_INS1_12relationship6fork_tILi0EEEEENSC_INSN_14continuation_tILi0EEEEEEEENS_10io_context19basic_executor_typeISaIvELj4EEESM_EET_PKvS11_z
_ZNK4asio10io_context19basic_executor_typeISaIvELj4EE7executeIRNS_6detail22executor_function_viewEEEvOT_
_ZN4asio9execution6detail17any_executor_base13query_fn_implINS_10io_context19basic_executor_typeISaIvELj4EEENS0_11prefer_onlyINS1_8blocking10possibly_tILi0EEEEEEEvPvPKvSF_PNSt9enable_ifIXntsrSt7is_sameIT_vE5valueEvE4typeE
_ZN4asio6detail18object_pool_access6createINS0_13epoll_reactor16descriptor_stateEbEEPT_T0_
_ZN4asio10io_context19basic_executor_typeISaIvELj0EED2Ev
_ZN4asio9execution6detail17any_executor_base17query_fn_non_voidINS_10io_context19basic_executor_typeISaIvELj0EEENS0_12context_as_tIRNS_17execution_contextEEEEEvPvPKvSE_PNSt9enable_ifIXaaaasrNS_9can_queryIRKT_RKT0_EE5valuentsrSt7is_sameINSK_29polymorphic_query_result_typeEvE5valuesrSt12is_referenceISP_E5valueEvE4typeE
_ZN4asio11add_serviceINS_6detail9schedulerEEEvRNS_17execution_contextEPT_
_ZN4asio9execution6detail17any_executor_base9prefer_fnINS0_12any_executorIJNS0_12context_as_tIRNS_17execution_contextEEENS1_8blocking7never_tILi0EEENS0_11prefer_onlyINS9_10possibly_tILi0EEEEENSC_INS1_16outstanding_work9tracked_tILi0EEEEENSC_INSG_11untracked_tILi0EEEEENSC_INS1_12relationship6fork_tILi0EEEEENSC_INSN_14continuation_tILi0EEEEEEEENS_10io_context19basic_executor_typeISaIvELj4EEESJ_EET_PKvS11_
_ZNKSt10error_codecvbEv
_ZN4asio9execution6detail17any_executor_base9prefer_fnINS0_12any_executorIJNS0_12context_as_tIRNS_17execution_contextEEENS1_8blocking7never_tILi0EEENS0_11prefer_onlyINS9_10possibly_tILi0EEEEENSC_INS1_16outstanding_work9tracked_tILi0EEEEENSC_INSG_11untracked_tILi0EEEEENSC_INS1_12relationship6fork_tILi0EEEEENSC_INSN_14continuation_tILi0EEEEEEEEvSF_EET_PKvSX_
_ZN4asio10io_contextD2Ev
_ZN4asio9execution6detail17any_executor_base11move_objectINS_10io_context19basic_executor_typeISaIvELj0EEEEEvRS2_S8_
_ZNSt8literals15chrono_literals16__check_overflowINSt6chrono8durationIlSt5ratioILl1ELl1000EEEEJLc50ELc48ELc48EEEET_v
__cxa_end_catch@CXXABI_1.3
_ZN4asio6detail19recycling_allocatorIvNS0_16thread_info_base21executor_function_tagEEC2Ev
_ZN4asio6detail9scheduler14task_operationD1Ev
_ZN4asio6detail16service_registry16init_key_from_idINS0_23reactive_socket_serviceINS_2ip3tcpEEEEEvRNS_17execution_context7service3keyERKNS0_10service_idIT_EE
_ZN4asio12const_bufferC1ERKNS_14mutable_bufferE
_ZN4asio6detail10socket_ops14get_last_errorERSt10error_codeb
_ZZN4asio5error21get_addrinfo_categoryEvE8instance
_ZSt9addressofISaIvEEPT_RS1_
_ZN4asio6detail23buffer_sequence_adapterINS_14mutable_bufferENS_17mutable_buffers_1EE9all_emptyERKS3_
_ZN4asio9execution12bad_executorD2Ev
_ZNK14asio_prefer_fn4implclIRKN4asio10io_context19basic_executor_typeISaIvELj4EEERKNS2_9execution6detail12relationship14continuation_tILi0EEEEENSt9enable_ifIXeqsrNS_11call_traitsIT_FvT0_EvEE8overloadLNS_13overload_typeE1EENSL_11result_typeEE4typeEOSI_OSJ_
_ZN4asio17execution_context7serviceD0Ev
__gxx_personality_v0@CXXABI_1.3
_ZN4asio6detail16thread_info_base8allocateINS1_11default_tagEEEPvT_PS1_m
_ZNSt6vectorIcSaIcEE21_M_default_initializeEm
_ZN4asio6detail17executor_functionD2Ev
_ZN4asio6detail10null_eventD2Ev
_ZN4asio6detail27conditionally_enabled_mutex11scoped_lockC1ERS1_NS2_12adopt_lock_tE
_ZZN4asio9execution6detail17any_executor_base16target_fns_tableIvEEPKNS2_10target_fnsEPNSt9enable_ifIXsrSt7is_sameIT_vE5valueEvE4typeEE3fns
_ZTVN4asio6detail30execution_context_service_baseINS0_23reactive_socket_serviceINS_2ip3tcpEEEEE
_ZN4asio9execution6detail17any_executor_base15require_fn_implINS0_12any_executorIJNS0_12context_as_tIRNS_17execution_contextEEENS1_8blocking7never_tILi0EEENS0_11prefer_onlyINS9_10possibly_tILi0EEEEENSC_INS1_16outstanding_work9tracked_tILi0EEEEENSC_INSG_11untracked_tILi0EEEEENSC_INS1_12relationship6fork_tILi0EEEEENSC_INSN_14continuation_tILi0EEEEEEEEvSJ_EET_PKvSX_PNSt9enable_ifIXsrSt7is_sameIT0_vE5valueEvE4typeE
_ZN4asio19basic_stream_socketINS_2ip3tcpENS_9execution12any_executorIJNS3_12context_as_tIRNS_17execution_contextEEENS3_6detail8blocking7never_tILi0EEENS3_11prefer_onlyINSA_10possibly_tILi0EEEEENSD_INS9_16outstanding_work9tracked_tILi0EEEEENSD_INSH_11untracked_tILi0EEEEENSD_INS9_12relationship6fork_tILi0EEEEENSD_INSO_14continuation_tILi0EEEEEEEEED1Ev
_ZN4asio6detail9scheduler9init_taskEv
_ZN4asio6detail19recycling_allocatorINS0_11executor_opINS0_22executor_function_viewESaIvENS0_19scheduler_operationEEENS0_16thread_info_base11default_tagEEC2IvEERKNS1_IT_S8_EE
_ZNSt10error_codeC2IN4asio5error12basic_errorsEvEET_
_ZTVN4asio6detail12posix_thread9func_baseE
_ZN4asio9execution6detail17any_executor_base10require_fnINS0_12any_executorIJNS0_12context_as_tIRNS_17execution_contextEEENS1_8blocking7never_tILi0EEENS0_11prefer_onlyINS9_10possibly_tILi0EEEEENSC_INS1_16outstanding_work9tracked_tILi0EEEEENSC_INSG_11untracked_tILi0EEEEENSC_INS1_12relationship6fork_tILi0EEEEENSC_INSN_14continuation_tILi0EEEEEEEEvS8_EET_PKvSX_
_ZN4asio6detail10socket_ops12sync_connectEiPK8sockaddrmRSt10error_code
_ZTSN4asio6detail30execution_context_service_baseINS0_9schedulerEEE
_ZN4asio6detail27conditionally_enabled_eventC2Ev
_ZN4asio2ip10address_v6C2ERKS1_
_ZN4asio5error19get_system_categoryEv
_ZNK4asio5error6detail13misc_category7messageB5cxx11Ei
_ZN4asio19asio_handler_invokeINS_6detail22executor_function_viewEEEvRT_z
_ZN4asio6detail30execution_context_service_baseINS0_23reactive_socket_serviceINS_2ip3tcpEEEED2Ev
_ZNK9__gnu_cxx13new_allocatorIcE11_M_max_sizeEv
_ZNSt11logic_errorC2ERKS_@GLIBCXX_3.4.21
_ZN4asio22service_already_existsD0Ev
_ZNKSt10error_code8categoryEv
_ZN4asio6detail8op_queueINS0_19scheduler_operationEEC2Ev
_ZN4asio6detail11executor_opINS0_17executor_functionESaIvENS0_19scheduler_operationEED2Ev
_ZTSN4asio6detail14thread_contextE
_ZGVN4asio6detail10call_stackINS0_23strand_executor_service11strand_implEhE4top_E
_ZNK4asio2ip7address5to_v6Ev
_ZN4asio6detail16service_registry16auto_service_ptrD2Ev
_ZZN9__gnu_cxx6__stoaIlicJiEEET0_PFT_PKT1_PPS3_DpT2_EPKcS5_PmS9_EN11_Save_errnoD1Ev
_ZN4asio6detail27conditionally_enabled_mutex11scoped_lock5mutexEv
_ZN4asio9execution6detail17any_executor_base13query_fn_implIvNS0_11prefer_onlyINS1_16outstanding_work11untracked_tILi0EEEEEEEvPvPKvSB_PNSt9enable_ifIXsrSt7is_sameIT_vE5valueEvE4typeE
_ZTVN4asio6detail30execution_context_service_baseINS0_13epoll_reactorEEE
_ZNSt6chronomiIlSt5ratioILl1ELl1000EElS1_ILl1ELl1EEEENSt11common_typeIJNS_8durationIT_T0_EENS5_IT1_T2_EEEE4typeERKS8_RKSB_
_ZN4asio10io_context19basic_executor_typeISaIvELj4EEC2EPS0_RKS2_j
_ZN4asio10io_context4workD2Ev
_ZStplIcSt11char_traitsIcESaIcEENSt7__cxx1112basic_stringIT_T0_T1_EEPKS5_OS8_
_ZN4asio9execution6detail17any_executor_baseC1INS_10io_context19basic_executor_typeISaIvELj0EEEEET_St17integral_constantIbLb0EE
_ZN4asio9execution6detail17any_executor_base17query_fn_non_voidINS_10io_context19basic_executor_typeISaIvELj0EEENS0_11prefer_onlyINS1_16outstanding_work11untracked_tILi0EEEEEEEvPvPKvSF_PNSt9enable_ifIXaaaaaasrNS_9can_queryIRKT_RKT0_EE5valuentsrSt7is_sameINSL_29polymorphic_query_result_typeEvE5valuentsrSt12is_referenceISQ_E5valuentsrSt9is_scalarISQ_E5valueEvE4typeE
_ZNK14asio_prefer_fn4implclIRKN4asio10io_context19basic_executor_typeISaIvELj4EEERKNS2_9execution11prefer_onlyINS9_6detail16outstanding_work11untracked_tILi0EEEEEEENSt9enable_ifIXeqsrNS_11call_traitsIT_FvT0_EvEE8overloadLNS_13overload_typeE4EENSN_11result_typeEE4typeEOSK_OSL_
_ZN4asio6detail12posix_threadD1Ev
_ZN4asio9execution6detail17any_executor_base13query_fn_implIvNS0_11prefer_onlyINS1_8blocking10possibly_tILi0EEEEEEEvPvPKvSB_PNSt9enable_ifIXsrSt7is_sameIT_vE5valueEvE4typeE
_ZNSt9exceptionC1EOS_
_ZN4asio9execution12any_executorIJNS0_12context_as_tIRNS_17execution_contextEEENS0_6detail8blocking7never_tILi0EEENS0_11prefer_onlyINS7_10possibly_tILi0EEEEENSA_INS6_16outstanding_work9tracked_tILi0EEEEENSA_INSE_11untracked_tILi0EEEEENSA_INS6_12relationship6fork_tILi0EEEEENSA_INSL_14continuation_tILi0EEEEEEED2Ev
_ZN4asio9execution6detail17any_executor_baseC2EOS2_
_ZN4asio2ip16bad_address_castC2ERKS1_
_ZN24asio_execution_submit_fn15static_instanceINS_4implEE8instanceE
_ZNSt7__cxx1112basic_stringIcSt11char_traitsIcESaIcEEC2IS3_EEPKcRKS3_
_ZTIN4asio6detail14typeid_wrapperINS0_23reactive_socket_serviceINS_2ip3tcpEEEEE
_ZN4asio6detail10reactor_opD1Ev
_Z11asio_nsensev
_ZN26asio_execution_schedule_fn15static_instanceINS_4implEE8instanceE
_ZN4asio6detail16service_registry14do_use_serviceERKNS_17execution_context7service3keyEPFPS3_PvES8_
_ZN4asio9execution6preferINS_10io_context19basic_executor_typeISaIvELj4EEENS0_6detail12relationship14continuation_tILi0EEEEENS_13prefer_resultIRKT_JRKS9_EE4typeESD_RKNS0_11prefer_onlyIT0_EEPNSt9enable_ifIXaasrSt7is_sameISJ_S9_E5valuesrNS_10can_preferISD_JSF_EEE5valueEvE4typeE
_ZN4asio6detail23buffer_sequence_adapterINS_14mutable_bufferENS_17mutable_buffers_1EE5firstERKS3_
_ZN4asio6detail16service_registryC1ERNS_17execution_contextE
_ZNK4asio5error6detail14netdb_category7messageB5cxx11Ei
_ZN4asio9execution6detail17any_executor_base16object_fns_tableINS_10io_context19basic_executor_typeISaIvELj0EEEEEPKNS2_10object_fnsEPNSt9enable_ifIXaantsrSt7is_sameIT_vE5valuentsrSC_ISD_St10shared_ptrIvEE5valueEvE4typeE
_ZNSt6thread4joinEv@GLIBCXX_3.4.11
__cxa_throw@CXXABI_1.3
_ZN4asio6detail10call_stackINS0_14thread_contextENS0_16thread_info_baseEE7contextC2EPS2_RS3_
_ZNSt3_V214error_categoryD2Ev@GLIBCXX_3.4.21
_ZN4asio6detail7tss_ptrINS0_10call_stackINS0_14thread_contextENS0_16thread_info_baseEE7contextEEaSEPS6_
_ZNSt12_Vector_baseIcSaIcEE12_Vector_implC1ERKS0_
_ZN4asio21asio_handler_allocateEmz
_ZN4asio9execution12bad_executorC1Ev
_ZN4asio9execution6detail17any_executor_base14prefer_fn_implINS0_12any_executorIJNS0_12context_as_tIRNS_17execution_contextEEENS1_8blocking7never_tILi0EEENS0_11prefer_onlyINS9_10possibly_tILi0EEEEENSC_INS1_16outstanding_work9tracked_tILi0EEEEENSC_INSG_11untracked_tILi0EEEEENSC_INS1_12relationship6fork_tILi0EEEEENSC_INSN_14continuation_tILi0EEEEEEEENS_10io_context19basic_executor_typeISaIvELj4EEES8_EET_PKvS11_z
_ZN4asio6detail9scheduler15thread_functionC2EPS1_
_ZN4asio6detail16thread_info_base10deallocateEPS1_Pvm
_ZN4asio10io_context19basic_executor_typeISaIvELj0EEC1EPS0_RKS2_j
_ZN4asio10io_context4workD1Ev
_ZNSt16allocator_traitsISaINSt7__cxx1112basic_stringIcSt11char_traitsIcESaIcEEEEE8max_sizeERKS6_
_ZN4asio6detail10service_idINS0_13epoll_reactorEED2Ev
_ZN4asio6detail11scoped_lockINS0_11posix_mutexEED2Ev
_ZTSN4asio6detail14typeid_wrapperINS0_9schedulerEEE
_ZN4asio9execution6detail17any_executor_base10require_fnINS0_12any_executorIJNS0_12context_as_tIRNS_17execution_contextEEENS1_8blocking7never_tILi0EEENS0_11prefer_onlyINS9_10possibly_tILi0EEEEENSC_INS1_16outstanding_work9tracked_tILi0EEEEENSC_INSG_11untracked_tILi0EEEEENSC_INS1_12relationship6fork_tILi0EEEEENSC_INSN_14continuation_tILi0EEEEEEEENS_10io_context19basic_executor_typeISaIvELj0EEESB_EET_PKvS11_
_ZN4asio9execution6detail17any_executor_base14prefer_fn_implINS0_12any_executorIJNS0_12context_as_tIRNS_17execution_contextEEENS1_8blocking7never_tILi0EEENS0_11prefer_onlyINS9_10possibly_tILi0EEEEENSC_INS1_16outstanding_work9tracked_tILi0EEEEENSC_INSG_11untracked_tILi0EEEEENSC_INS1_12relationship6fork_tILi0EEEEENSC_INSN_14continuation_tILi0EEEEEEEEvST_EET_PKvSX_PNSt9enable_ifIXsrSt7is_sameIT0_vE5valueEvE4typeE
_ZN4asio6detail16service_registry8init_keyINS0_23reactive_socket_serviceINS_2ip3tcpEEEEEvRNS_17execution_context7service3keyEz
_ZN4asio9execution6detail17any_executor_base9move_voidERS2_S3_
_ZN4asio6detail30execution_context_service_baseINS0_23reactive_socket_serviceINS_2ip3tcpEEEEC2ERNS_17execution_contextE
_ZN4asio6detail10socket_ops9inet_ptonEiPKcPvPmRSt10error_code
_ZN9__gnu_cxx13new_allocatorINSt7__cxx1112basic_stringIcSt11char_traitsIcESaIcEEEEC2ERKS7_
_ZN9__gnu_cxx13new_allocatorINSt7__cxx1112basic_stringIcSt11char_traitsIcESaIcEEEED1Ev
_ZTVN10__cxxabiv121__vmi_class_type_infoE@CXXABI_1.3
_ZNSt6chrono8durationIlSt5ratioILl1ELl1EEEC1IlvEERKT_
_ITM_deregisterTMCloneTable
_ZN4asio6detail15system_categoryD0Ev
_ZN4asio6detail16thread_info_base25rethrow_pending_exceptionEv
_ZNK9__gnu_cxx13new_allocatorINSt7__cxx1112basic_stringIcSt11char_traitsIcESaIcEEEE8max_sizeEv
_ZTVN4asio17execution_context7serviceE
_ZNK4asio10io_context19basic_executor_typeISaIvELj4EE5queryENS_9execution6detail9context_tILi0EEE
_ZNK14asio_prefer_fn4implclIN4asio9execution12any_executorIJNS3_12context_as_tIRNS2_17execution_contextEEENS3_6detail8blocking7never_tILi0EEENS3_11prefer_onlyINSA_10possibly_tILi0EEEEENSD_INS9_16outstanding_work9tracked_tILi0EEEEENSD_INSH_11untracked_tILi0EEEEENSD_INS9_12relationship6fork_tILi0EEEEENSD_INSO_14continuation_tILi0EEEEEEEENS3_11allocator_tISaIvEEEEENSt9enable_ifIXeqsrNS_11call_traitsIT_FvT0_EvEE8overloadLNS_13overload_typeE0EENS14_11result_typeEE4typeEOS11_OS12_
_Unwind_Resume@GCC_3.0
_ZN4asio6detail11throw_errorERKSt10error_codePKc
_ZNSt11logic_errorD2Ev@GLIBCXX_3.4
timerfd_create@GLIBC_2.8
_ZNSaIcEC1Ev@GLIBCXX_3.4
_ZN4asio6detail11scoped_lockINS0_11posix_mutexEEC1ERS2_
_ZTISt11logic_error@GLIBCXX_3.4
_ZN4asio9execution6detail17any_executor_base10require_fnINS0_12any_executorIJNS0_12context_as_tIRNS_17execution_contextEEENS1_8blocking7never_tILi0EEENS0_11prefer_onlyINS9_10possibly_tILi0EEEEENSC_INS1_16outstanding_work9tracked_tILi0EEEEENSC_INSG_11untracked_tILi0EEEEENSC_INS1_12relationship6fork_tILi0EEEEENSC_INSN_14continuation_tILi0EEEEEEEENS_10io_context19basic_executor_typeISaIvELj4EEESM_EET_PKvS11_
_ZNSt12_Vector_baseIcSaIcEE17_Vector_impl_dataC2Ev
_ZNSt6chrono8durationIlSt5ratioILl1ELl1000EEE4zeroEv
_ZSt27__uninitialized_default_n_aIPcmcET_S1_T0_RSaIT1_E
setsockopt@GLIBC_2.2.5
_ZNSt10_Head_baseILm0EPNSt6thread6_StateELb0EEC1Ev
_ZN4asio6detail10call_stackINS0_14thread_contextENS0_16thread_info_baseEE8containsEPS2_
_ZNSt9exceptionC2ERKS_
_ZNSt6vectorINSt7__cxx1112basic_stringIcSt11char_traitsIcESaIcEEESaIS5_EE19_M_range_initializeIPKS5_EEvT_SB_St20forward_iterator_tag
_ZNKSt3_V214error_category10_M_messageB5cxx11Ei@GLIBCXX_3.4.21
_ZNSt6chrono20__duration_cast_implINS_8durationIlSt5ratioILl1ELl1EEEES2_ILl1ELl1000EElLb1ELb0EE6__castIlS5_EES4_RKNS1_IT_T0_EE
_ZN4asio6detail10socket_ops5recv1EiPvmiRSt10error_code
_ZN4asio2ip16bad_address_castC1Ev
_ZNSt7__cxx1112basic_stringIcSt11char_traitsIcESaIcEE9_M_createERmm@GLIBCXX_3.4.21
_ZN4asio9execution6detail17any_executor_base16target_fns_tableINS_10io_context19basic_executor_typeISaIvELj4EEEEEPKNS2_10target_fnsEbPNSt9enable_ifIXntsrSt7is_sameIT_vE5valueEvE4typeE
_ZTVN4asio6detail30execution_context_service_baseINS0_9schedulerEEE
_ZN4asio2ip14basic_endpointINS0_3tcpEEC1ERKNS0_7addressEt
_ZNSt11this_thread9sleep_forIlSt5ratioILl1ELl1000EEEEvRKNSt6chrono8durationIT_T0_EE
_ZNKSt3_V214error_category10equivalentERKSt10error_codei@GLIBCXX_3.4.21
_ZNK4asio2ip6detail8endpoint4sizeEv
_ZNSt15__uniq_ptr_implINSt6thread6_StateESt14default_deleteIS1_EE6_M_ptrEv
_ZTIN4asio6detail11noncopyableE
_ZNSt6thread2idC2Ev
_ZN4asio6detail12posix_thread18auto_func_base_ptrD2Ev
_ZNSt12_Vector_baseINSt7__cxx1112basic_stringIcSt11char_traitsIcESaIcEEESaIS5_EED1Ev
_ZSt8distanceIPKNSt7__cxx1112basic_stringIcSt11char_traitsIcESaIcEEEENSt15iterator_traitsIT_E15difference_typeES9_S9_
_ZNK4asio12const_buffer4sizeEv
_ZN4asio6detail17executor_functionD1Ev
__cxa_guard_acquire@CXXABI_1.3
_ZN4asio12basic_socketINS_2ip3tcpENS_9execution12any_executorIJNS3_12context_as_tIRNS_17execution_contextEEENS3_6detail8blocking7never_tILi0EEENS3_11prefer_onlyINSA_10possibly_tILi0EEEEENSD_INS9_16outstanding_work9tracked_tILi0EEEEENSD_INSH_11untracked_tILi0EEEEENSD_INS9_12relationship6fork_tILi0EEEEENSD_INSO_14continuation_tILi0EEEEEEEEE7connectERKNS1_14basic_endpointIS2_EERSt10error_code
_ZN4asio9execution6detail17any_executor_base10require_fnINS0_12any_executorIJNS0_12context_as_tIRNS_17execution_contextEEENS1_8blocking7never_tILi0EEENS0_11prefer_onlyINS9_10possibly_tILi0EEEEENSC_INS1_16outstanding_work9tracked_tILi0EEEEENSC_INSG_11untracked_tILi0EEEEENSC_INS1_12relationship6fork_tILi0EEEEENSC_INSN_14continuation_tILi0EEEEEEEENS_10io_context19basic_executor_typeISaIvELj0EEESM_EET_PKvS11_
pthread_create@GLIBC_2.34
_ZN9__gnu_cxx13new_allocatorINSt7__cxx1112basic_stringIcSt11char_traitsIcESaIcEEEEC1Ev
_ZN4asio9execution6detail17any_executor_base13query_fn_implINS_10io_context19basic_executor_typeISaIvELj4EEENS1_8blocking7never_tILi0EEEEEvPvPKvSD_PNSt9enable_ifIXntsrSt7is_sameIT_vE5valueEvE4typeE
_ZNKSt6chrono8durationIlSt5ratioILl1ELl1EEE5countEv
_ZNK4asio2ip7address5to_v4Ev
_ZNKSt6chrono8durationIlSt5ratioILl1ELl1000000000EEE5countEv
_ZN4asio6detail16service_registry6createINS0_13epoll_reactorENS_17execution_contextEEEPNS4_7serviceEPv
_ZTVSt12system_error@GLIBCXX_3.4.11
_ZN4asio12basic_socketINS_2ip3tcpENS_9execution12any_executorIJNS3_12context_as_tIRNS_17execution_contextEEENS3_6detail8blocking7never_tILi0EEENS3_11prefer_onlyINSA_10possibly_tILi0EEEEENSD_INS9_16outstanding_work9tracked_tILi0EEEEENSD_INSH_11untracked_tILi0EEEEENSD_INS9_12relationship6fork_tILi0EEEEENSD_INSO_14continuation_tILi0EEEEEEEEEC2INS_10io_contextEEERT_PNSt9enable_ifIXsrSt14is_convertibleIS10_S7_E5valueEvE4typeE
_ZN4asio6detail30execution_context_service_baseINS0_23reactive_socket_serviceINS_2ip3tcpEEEED0Ev
_ZNSt10_Head_baseILm1ESt14default_deleteINSt6thread6_StateEELb1EE7_M_headERS4_
_ZN4asio6detail15op_queue_access7destroyINS0_10reactor_opEEEvPT_
_ZN4asio6detail9scheduler12work_cleanupD1Ev
_ZN4asio6detail10call_stackINS0_14thread_contextENS0_16thread_info_baseEE7contextD1Ev
_ZN4asio6detail7tss_ptrINS0_10call_stackINS0_14thread_contextENS0_16thread_info_baseEE7contextEEC2Ev
_ZN4asio6detail16std_fenced_blockC1ENS1_6half_tE
_ZNSt6vectorINSt7__cxx1112basic_stringIcSt11char_traitsIcESaIcEEESaIS5_EEixEm
_ZN4asio6detail10service_idINS0_13epoll_reactorEED1Ev
_ZN4asio5error21get_addrinfo_categoryEv
_ZN4asio6detail10service_idINS0_23reactive_socket_serviceINS_2ip3tcpEEEEC1Ev
_ZN4asio6detail12posix_thread4funcINS0_9scheduler15thread_functionEEC1ES4_
_ZNSt15__exception_ptr13exception_ptrD1Ev
_ZN4asio2ip16bad_address_castC1ERKS1_
_ZTSN4asio6detail12posix_thread9func_baseE
_ZN4asio6detail14do_throw_errorERKSt10error_codePKc
_ZNSt10_Head_baseILm0EPNSt6thread6_StateELb0EE7_M_headERS3_
_ZNSt9exceptionD2Ev@GLIBCXX_3.4
_ZN4asio6detail26eventfd_select_interrupterD2Ev
_ZN4asio6detail9scheduler12task_cleanupD2Ev
_ZN4asio2ip10address_v4C1ERKS1_
_ZN4asio9execution6detail17any_executor_baseC2INS_10io_context19basic_executor_typeISaIvELj4EEEEET_St17integral_constantIbLb0EE
_ZNK4asio14mutable_buffer4dataEv
_ZN4asio6detail16thread_info_base8allocateINS1_21executor_function_tagEEEPvT_PS1_m
_ZTSN4asio17execution_context7serviceE
_ZN4asio6detail16service_registry17shutdown_servicesEv
_ZNSt11_Tuple_implILm1EJSt14default_deleteINSt6thread6_StateEEEEC1Ev
_ZNK14asio_prefer_fn4implclIRKN4asio10io_context19basic_executor_typeISaIvELj4EEERKNS2_9execution6detail12relationship6fork_tILi0EEEEENSt9enable_ifIXeqsrNS_11call_traitsIT_FvT0_EvEE8overloadLNS_13overload_typeE1EENSL_11result_typeEE4typeEOSI_OSJ_
_ZNK4asio10io_context19basic_executor_typeISaIvELj0EE7requireENS_9execution6detail8blocking10possibly_tILi0EEE
_ZSt17__size_to_integerm
_ZN4asio10io_context19basic_executor_typeISaIvELj0EEC2EOS3_
_ZN4asio22service_already_existsC1ERKS0_
_ZN4asio6detail15throw_exceptionISt12system_errorEEvRKT_
epoll_create@GLIBC_2.3.2
_ZN4asio6detail8op_queueINS0_19scheduler_operationEE5frontEv
_ZSt8_DestroyIPccEvT_S1_RSaIT0_E
_ZNK4asio10io_context19basic_executor_typeISaIvELj4EE7requireENS_9execution6detail16outstanding_work11untracked_tILi0EEE
_ZN4asio9execution6detail17any_executor_base8equal_exINS_10io_context19basic_executor_typeISaIvELj0EEEEEbRKS2_S9_
_ZN4asio6detail12service_baseINS0_14strand_serviceEE2idE
_ZNSt11char_traitsIcE6lengthEPKc
_ZNK14asio_prefer_fn4implclIRKN4asio10io_context19basic_executor_typeISaIvELj4EEERKNS2_9execution11prefer_onlyINS9_6detail8blocking10possibly_tILi0EEEEEEENSt9enable_ifIXeqsrNS_11call_traitsIT_FvT0_EvEE8overloadLNS_13overload_typeE4EENSN_11result_typeEE4typeEOSK_OSL_
_ZSt9addressofIN4asio6detail17executor_functionEEPT_RS3_
_ZTISt9exception@GLIBCXX_3.4
_ZN4asio17execution_contextD2Ev
_ZN4asio17mutable_buffers_1C1EPvm
_ZN9__gnu_cxx6__stoaIlicJiEEET0_PFT_PKT1_PPS3_DpT2_EPKcS5_PmS9_
_ZTSN4asio6detail14typeid_wrapperINS0_23reactive_socket_serviceINS_2ip3tcpEEEEE
_ZN4asio6detail13epoll_reactor14update_timeoutEv
_ZN4asio6detail9scheduler3runERSt10error_code
_ZZN4asio9execution6detail17any_executor_base16target_fns_tableINS_10io_context19basic_executor_typeISaIvELj0EEEEEPKNS2_10target_fnsEbPNSt9enable_ifIXntsrSt7is_sameIT_vE5valueEvE4typeEE25fns_with_blocking_execute
_ZNSt6vectorIcSaIcEEC1EmRKS0_
_ZN4asio6detail7tss_ptrINS0_10call_stackINS0_23strand_executor_service11strand_implEhE7contextEED2Ev
_ZNK13asio_query_fn4implclIRKN4asio10io_context19basic_executor_typeISaIvELj4EEERKNS2_9execution6detail12relationship14continuation_tILi0EEEEENSt9enable_ifIXeqsrNS_11call_traitsIT_FvT0_EvEE8overloadLNS_13overload_typeE1EENSL_11result_typeEE4typeEOSI_OSJ_
_ZNSt12_Vector_baseIcSaIcEED2Ev
__gmon_start__
_ZN4asio6detail13socket_holder7releaseEv
_ZN4asio9execution6detail17any_executor_base11move_objectINS_10io_context19basic_executor_typeISaIvELj4EEEEEvRS2_S8_
_ZNK4asio9execution11allocator_tIvEclISaIvEEENS1_IT_EERKS5_
_ZN4asio9execution6detail17any_executor_base11copy_objectINS_10io_context19basic_executor_typeISaIvELj0EEEEEvRS2_RKS2_
_ZN4asio10io_context19basic_executor_typeISaIvELj4EEC1EPS0_RKS2_j
_ZSt3getILm1EJPNSt6thread6_StateESt14default_deleteIS1_EEERNSt13tuple_elementIXT_ESt5tupleIJDpT0_EEE4typeERS9_
inet_pton@GLIBC_2.2.5
_ZN4asio6detail8op_queueINS0_10reactor_opEED1Ev
_ZN4asio6detail16service_registry16init_key_from_idINS0_9schedulerEEEvRNS_17execution_context7service3keyERKNS0_10service_idIT_EE
_ZTIN4asio5error6detail17addrinfo_categoryE
_ZN4asio2ip3tcpC1Ei
__cxa_pure_virtual@CXXABI_1.3
_ZdlPvS_
_ZN4asio9execution6detail17any_executor_base17query_fn_non_voidINS_10io_context19basic_executor_typeISaIvELj4EEENS0_11prefer_onlyINS1_12relationship6fork_tILi0EEEEEEEvPvPKvSF_PNSt9enable_ifIXaaaaaasrNS_9can_queryIRKT_RKT0_EE5valuentsrSt7is_sameINSL_29polymorphic_query_result_typeEvE5valuentsrSt12is_referenceISQ_E5valuentsrSt9is_scalarISQ_E5valueEvE4typeE
_ZN4asio6detail16service_registry16init_key_from_idINS0_13epoll_reactorEEEvRNS_17execution_context7service3keyERKNS0_10service_idIT_EE
_ZN4asio5error18get_netdb_categoryEv
_ZN4asio6detail8op_queueINS0_19scheduler_operationEED1Ev
_ITM_registerTMCloneTable
_ZN4asio6detail27conditionally_enabled_event4waitERNS0_27conditionally_enabled_mutex11scoped_lockE
_ZN4asio6detail11executor_opINS0_17executor_functionESaIvENS0_19scheduler_operationEE3ptrD2Ev
_ZN4asio6detail9scheduler12can_dispatchEv
_ZN4asio6detail12posix_thread9func_baseD2Ev
_ZN4asio9execution6detail17any_executor_base10require_fnINS0_12any_executorIJNS0_12context_as_tIRNS_17execution_contextEEENS1_8blocking7never_tILi0EEENS0_11prefer_onlyINS9_10possibly_tILi0EEEEENSC_INS1_16outstanding_work9tracked_tILi0EEEEENSC_INSG_11untracked_tILi0EEEEENSC_INS1_12relationship6fork_tILi0EEEEENSC_INSN_14continuation_tILi0EEEEEEEENS_10io_context19basic_executor_typeISaIvELj0EEEST_EET_PKvS11_
_ZN4asio6detail15keyword_tss_ptrINS0_10call_stackINS0_14strand_service11strand_implEhE7contextEED2Ev
_ZNSt6chrono20__duration_cast_implINS_8durationIlSt5ratioILl1ELl1000EEEES2_ILl1000ELl1EElLb0ELb1EE6__castIlS2_ILl1ELl1EEEES4_RKNS1_IT_T0_EE
_ZN4asio9execution12any_executorIJNS0_12context_as_tIRNS_17execution_contextEEENS0_6detail8blocking7never_tILi0EEENS0_11prefer_onlyINS7_10possibly_tILi0EEEEENSA_INS6_16outstanding_work9tracked_tILi0EEEEENSA_INSE_11untracked_tILi0EEEEENSA_INS6_12relationship6fork_tILi0EEEEENSA_INSL_14continuation_tILi0EEEEEEEC1INS_10io_context19basic_executor_typeISaIvELj4EEEEET_PNSt9enable_ifIXsrNSt11conditionalIXaantsrSt7is_sameISY_SS_E5valuentsrSt10is_base_ofINS6_17any_executor_baseESY_E5valueENS6_24is_valid_target_executorISY_FvS5_S9_SD_SH_SK_SO_SR_EEESt17integral_constantIbLb0EEE4typeE5valueEvE4typeE
_ZNK4asio2ip6detail8endpoint5is_v4Ev
_ZN4asio9execution6detail17any_executor_base8query_fnINS_10io_context19basic_executor_typeISaIvELj4EEENS1_8blocking7never_tILi0EEEEEvPvPKvSD_
_ZN4asio6detail16service_registry6createINS0_23reactive_socket_serviceINS_2ip3tcpEEENS_10io_contextEEEPNS_17execution_context7serviceEPv
_ZNKSt16initializer_listINSt7__cxx1112basic_stringIcSt11char_traitsIcESaIcEEEE3endEv
_ZNK4asio5error6detail17addrinfo_category7messageB5cxx11Ei
_ZN4asio6detail15op_queue_access4backINS0_10reactor_opEEERPT_RNS0_8op_queueIS4_EE
_ZN4asio9execution6detail10blocking_tILi0EEC2ENS1_8blocking8always_tILi0EEE
_ZN4asio9execution6detail17any_executor_base14query_blockingINS_10io_context19basic_executor_typeISaIvELj4EEEEENS1_10blocking_tILi0EEERKT_St17integral_constantIbLb1EE
pthread_cond_destroy@GLIBC_2.3.2
_ZN4asio2ip12make_addressERKNSt7__cxx1112basic_stringIcSt11char_traitsIcESaIcEEERSt10error_code
_ZNSt7__cxx114stoiERKNS_12basic_stringIcSt11char_traitsIcESaIcEEEPmi
_ZZN9__gnu_cxx6__stoaIlicJiEEET0_PFT_PKT1_PPS3_DpT2_EPKcS5_PmS9_EN10_Range_chk6_S_chkElSt17integral_constantIbLb1EE
_ZNK14asio_prefer_fn4implclIRN4asio9execution12any_executorIJNS3_12context_as_tIRNS2_17execution_contextEEENS3_6detail8blocking7never_tILi0EEENS3_11prefer_onlyINSA_10possibly_tILi0EEEEENSD_INS9_16outstanding_work9tracked_tILi0EEEEENSD_INSH_11untracked_tILi0EEEEENSD_INS9_12relationship6fork_tILi0EEEEENSD_INSO_14continuation_tILi0EEEEEEEERKSF_NS3_11allocator_tISaIvEEEEENSt9enable_ifIXeqsrNS_11call_traitsIT_FvT0_T1_EvEE8overloadLNS_13overload_typeE5EENS18_11result_typeEE4typeEOS14_OS15_OS16_
_ZNK14asio_prefer_fn4implclIRKN4asio10io_context19basic_executor_typeISaIvELj0EEERKNS2_9execution11prefer_onlyINS9_6detail12relationship6fork_tILi0EEEEEEENSt9enable_ifIXeqsrNS_11call_traitsIT_FvT0_EvEE8overloadLNS_13overload_typeE4EENSN_11result_typeEE4typeEOSK_OSL_
_ZN4asio9execution6detail17any_executor_base15require_fn_implINS0_12any_executorIJNS0_12context_as_tIRNS_17execution_contextEEENS1_8blocking7never_tILi0EEENS0_11prefer_onlyINS9_10possibly_tILi0EEEEENSC_INS1_16outstanding_work9tracked_tILi0EEEEENSC_INSG_11untracked_tILi0EEEEENSC_INS1_12relationship6fork_tILi0EEEEENSC_INSN_14continuation_tILi0EEEEEEEEvS8_EET_PKvSX_PNSt9enable_ifIXsrSt7is_sameIT0_vE5valueEvE4typeE
close@GLIBC_2.2.5
_ZN4asio6detail11posix_event21unlock_and_signal_oneINS0_27conditionally_enabled_mutex11scoped_lockEEEvRT_
_ZN4asio6detail28reactive_socket_recv_op_baseINS_17mutable_buffers_1EEC1ERKSt10error_codeihRKS2_iPFvPvPNS0_19scheduler_operationES6_mE
_ZN4asio6detail16std_fenced_blockC1ENS1_6full_tE
_ZN4asio9execution6detail17any_executor_base11target_voidERKS2_
_ZN4asio6detail16service_registry8init_keyINS0_13epoll_reactorEEEvRNS_17execution_context7service3keyEz
_ZN4asio6detail16std_fenced_blockC2ENS1_6half_tE
_ZN4asio9execution6detail17any_executor_base13query_fn_implINS_10io_context19basic_executor_typeISaIvELj4EEENS0_11prefer_onlyINS1_12relationship14continuation_tILi0EEEEEEEvPvPKvSF_PNSt9enable_ifIXntsrSt7is_sameIT_vE5valueEvE4typeE
_ZN4asio6detail28reactive_socket_service_base4sendINS_17mutable_buffers_1EEEmRNS1_24base_implementation_typeERKT_iRSt10error_code
_ZN4asio2ip3tcp2v4Ev
_ZNK4asio6detail15system_category7messageB5cxx11Ei
_ZN4asio10io_context19basic_executor_typeISaIvELj4EED1Ev
_ZTSN4asio5error6detail17addrinfo_categoryE
_ZN4asio9execution12any_executorIJNS0_12context_as_tIRNS_17execution_contextEEENS0_6detail8blocking7never_tILi0EEENS0_11prefer_onlyINS7_10possibly_tILi0EEEEENSA_INS6_16outstanding_work9tracked_tILi0EEEEENSA_INSE_11untracked_tILi0EEEEENSA_INS6_12relationship6fork_tILi0EEEEENSA_INSL_14continuation_tILi0EEEEEEEC2INS_10io_context19basic_executor_typeISaIvELj0EEEEET_PNSt9enable_ifIXsrNSt11conditionalIXaantsrSt7is_sameISY_SS_E5valuentsrSt10is_base_ofINS6_17any_executor_baseESY_E5valueENS6_24is_valid_target_executorISY_FvS5_S9_SD_SH_SK_SO_SR_EEESt17integral_constantIbLb0EEE4typeE5valueEvE4typeE
_ZNSt7__cxx1112basic_stringIcSt11char_traitsIcESaIcEE11_M_capacityEm@GLIBCXX_3.4.21
_ZN4asio6detail13epoll_reactorC1ERNS_17execution_contextE
_ZN4asio6detail10null_eventD1Ev
_ZN4asio9execution6preferINS_10io_context19basic_executor_typeISaIvELj0EEENS0_6detail8blocking10possibly_tILi0EEEEENS_13prefer_resultIRKT_JRKS9_EE4typeESD_RKNS0_11prefer_onlyIT0_EEPNSt9enable_ifIXaasrSt7is_sameISJ_S9_E5valuesrNS_10can_preferISD_JSF_EEE5valueEvE4typeE
_ZTIN4asio6detail30execution_context_service_baseINS0_23reactive_socket_serviceINS_2ip3tcpEEEEE
_ZN4asio6detail13epoll_reactor16descriptor_stateD1Ev
_ZN4asio6detail9scheduler12task_cleanupD1Ev
_ZNSt12_Vector_baseINSt7__cxx1112basic_stringIcSt11char_traitsIcESaIcEEESaIS5_EE19_M_get_Tp_allocatorEv
_ZN4asio6detail14io_object_implINS0_23reactive_socket_serviceINS_2ip3tcpEEENS_9execution12any_executorIJNS6_12context_as_tIRNS_17execution_contextEEENS6_6detail8blocking7never_tILi0EEENS6_11prefer_onlyINSD_10possibly_tILi0EEEEENSG_INSC_16outstanding_work9tracked_tILi0EEEEENSG_INSK_11untracked_tILi0EEEEENSG_INSC_12relationship6fork_tILi0EEEEENSG_INSR_14continuation_tILi0EEEEEEEEED1Ev
_ZNK4asio6detail27conditionally_enabled_mutex7enabledEv
_ZNKSt7__cxx1112basic_stringIcSt11char_traitsIcESaIcEE4findERKS4_m@GLIBCXX_3.4.21
_ZN4asio22service_already_existsC2Ev
_ZN4asio9execution6detail17any_executor_base17query_fn_non_voidINS_10io_context19basic_executor_typeISaIvELj4EEENS0_12context_as_tIRNS_17execution_contextEEEEEvPvPKvSE_PNSt9enable_ifIXaaaasrNS_9can_queryIRKT_RKT0_EE5valuentsrSt7is_sameINSK_29polymorphic_query_result_typeEvE5valuesrSt12is_referenceISP_E5valueEvE4typeE
_ZN9__gnu_cxx13new_allocatorINSt7__cxx1112basic_stringIcSt11char_traitsIcESaIcEEEED2Ev
_ZNSt8ios_base4InitD1Ev@GLIBCXX_3.4
_ZN4asio6detail27conditionally_enabled_event21unlock_and_signal_oneERNS0_27conditionally_enabled_mutex11scoped_lockE
_ZN4asio6detail9scheduler15thread_functionclEv
_ZN4asio19multiple_exceptionsD1Ev
_ZN4asio6detail10null_eventC2Ev
.symtab
.strtab
.shstrtab
.interp
.note.gnu.property
.note.gnu.build-id
.note.ABI-tag
.gnu.hash
.dynsym
.dynstr
.gnu.version
.gnu.version_r
.rela.dyn
.rela.plt
.init
.plt.got
.plt.sec
.text
.fini
.rodata
.eh_frame_hdr
.eh_frame
.gcc_except_table
.tbss
.init_array
.fini_array
.data.rel.ro
.dynamic
.data
.bss
.comment
